((dp0
S'k_crashes'
p1
I0
sS'load_priority'
p2
I00
sS'e'
p3
I10
sS'p_crashes'
p4
F0.015625
sS'k_omissions'
p5
I0
sS'epsilon'
p6
F0.01
sS'showProgress'
p7
I00
sS'p_delays'
p8
I0
sS'm'
p9
I4
sS'l'
p10
I4
sS'n'
p11
I4
sS'p_omissions'
p12
F0.015625
sS'countFaults'
p13
I00
sS'save_priority'
p14
I01
sS'probabalistic'
p15
I01
sS't'
p16
I4
sS'k_delays'
p17
I0
sS'precision'
p18
I10
sS'optimize'
p19
I01
sS'confidence'
p20
F0.999
s(dp21
S'timing_time'
p22
F2.86102294921875e-06
sS'2mt'
p23
F10.92754602432251
sS'0o_inner'
p24
(dp25
g22
F3.409385681152344e-05
sS'numSols_sharpSAT'
p26
(dp27
I0
(dp28
sI1
(dp29
sI2
(dp30
sI3
(dp31
sI4
(dp32
sI5
(dp33
sI6
(dp34
ssS'saboteurProbability'
p35
(dp36
I0
F0.017780065536499023
sI1
F0.0159759521484375
sI2
F3.982783079147339
sI3
F42.69078707695007
sI4
F268.3307960033417
sI5
F1023.8817620277405
sI6
F2400.211753845215
ssS'immediatefailureConstraints'
p37
(dp38
I0
(dp39
sI1
(dp40
sI2
(dp41
sI3
(dp42
sI4
(dp43
sI5
(dp44
sI6
(dp45
ssS'generate program'
p46
F0.1798419952392578
sS'cnf to dimacs'
p47
(dp48
I0
(dp49
sI1
(dp50
sI2
(dp51
sI3
(dp52
sI4
(dp53
sI5
(dp54
sI6
(dp55
ssS'k_maxSimulationConstraints_BOOL'
p56
(dp57
I0
F0.01927804946899414
sI1
F0.01907491683959961
sI2
F0.019999980926513672
sI3
F0.019049882888793945
sI4
F0.0191190242767334
sI5
F0.01910114288330078
sI6
F0.01883411407470703
ssS'sharpSAT_time'
p58
(dp59
I0
(dp60
sI1
(dp61
sI2
(dp62
sI3
(dp63
sI4
(dp64
sI5
(dp65
sI6
(dp66
ssS'numSols_approxMC'
p67
(dp68
I0
(dp69
sI1
(dp70
sI2
(dp71
sI3
(dp72
sI4
(dp73
sI5
(dp74
sI6
(dp75
ssS'z3 to cnf'
p76
(dp77
I0
(dp78
sI1
(dp79
sI2
(dp80
sI3
(dp81
sI4
(dp82
sI5
(dp83
sI6
(dp84
ssS'mis_time'
p85
(dp86
I0
(dp87
sI1
(dp88
sI2
(dp89
sI3
(dp90
sI4
(dp91
sI5
(dp92
sI6
(dp93
ssS'numSols_approxMC_mis'
p94
(dp95
I0
(dp96
sI1
(dp97
sI2
(dp98
sI3
(dp99
sI4
(dp100
sI5
(dp101
sI6
(dp102
ssS'approxMC_time'
p103
(dp104
I0
(dp105
sI1
(dp106
sI2
(dp107
sI3
(dp108
sI4
(dp109
sI5
(dp110
sI6
(dp111
ssS'approxMC_mis_time'
p112
(dp113
I0
(dp114
sI1
(dp115
sI2
(dp116
sI3
(dp117
sI4
(dp118
sI5
(dp119
sI6
(dp120
sssS'0b'
p121
F55.43169713020325
sS'0a'
p122
F2477.0893738269806
sS'0a_inner'
p123
(dp124
g22
F5.173683166503906e-05
sg26
(dp125
I0
(dp126
sI1
(dp127
sI2
(dp128
sI3
(dp129
sI4
(dp130
sI5
(dp131
ssg35
(dp132
I0
F0.015633821487426758
sI1
F0.010255813598632812
sI2
F0.15858101844787598
sI3
F3.654313802719116
sI4
F72.77315211296082
sI5
F2400.055755853653
ssg37
(dp133
I0
(dp134
sI1
(dp135
sI2
(dp136
sI3
(dp137
sI4
(dp138
sI5
(dp139
ssg46
F0.17560291290283203
sg47
(dp140
I0
(dp141
sI1
(dp142
sI2
(dp143
sI3
(dp144
sI4
(dp145
sI5
(dp146
ssg56
(dp147
I0
F0.018733978271484375
sI1
F0.019457101821899414
sI2
F0.019296884536743164
sI3
F0.018728971481323242
sI4
F0.018782854080200195
sI5
F0.019624948501586914
ssg58
(dp148
I0
(dp149
sI1
(dp150
sI2
(dp151
sI3
(dp152
sI4
(dp153
sI5
(dp154
ssg67
(dp155
I0
(dp156
sI1
(dp157
sI2
(dp158
sI3
(dp159
sI4
(dp160
sI5
(dp161
ssg76
(dp162
I0
(dp163
sI1
(dp164
sI2
(dp165
sI3
(dp166
sI4
(dp167
sI5
(dp168
ssg85
(dp169
I0
(dp170
sI1
(dp171
sI2
(dp172
sI3
(dp173
sI4
(dp174
sI5
(dp175
ssg94
(dp176
I0
(dp177
sI1
(dp178
sI2
(dp179
sI3
(dp180
sI4
(dp181
sI5
(dp182
ssg103
(dp183
I0
(dp184
sI1
(dp185
sI2
(dp186
sI3
(dp187
sI4
(dp188
sI5
(dp189
ssg112
(dp190
I0
(dp191
sI1
(dp192
sI2
(dp193
sI3
(dp194
sI4
(dp195
sI5
(dp196
sssS'doomed_state_timing'
p197
(dp198
S'total'
p199
F3561.845514535904
sS'solving'
p200
F828.0110499858856
sS'excluding'
p201
F0.01935863494873047
sS'constraints'
p202
F2586.74675822258
ssS'2m'
p203
F38.877094984054565
sS'1m_inner'
p204
(dp205
S'sharpsat'
p206
F0.060599
sg22
F2.1457672119140625e-06
sS'dimacs to file'
p207
F0.0028870105743408203
sS'cnf to dimacs'
p208
F1.4816820621490479
sS'generate program'
p209
F0.17379093170166016
sS'assign weights'
p210
F0.04173707962036133
sS'z3 to cnf'
p211
F0.0024919509887695312
sS'get umc'
p212
F0.12379693984985352
ssS'1m'
p213
F1.932978868484497
sS'0o'
p214
F3739.464693069458
sS'0b_inner'
p215
(dp216
g22
F0.00033926963806152344
sg26
(dp217
I0
(dp218
I0
I0
ssI1
(dp219
I0
I0
sI1
I0
sI2
I0
sI3
I0
ssI2
(dp220
I0
I8
sI1
I0
sI2
I0
sI3
I0
ssI3
(dp221
I0
I55
sI1
I0
sI2
I0
sI3
I0
ssI4
(dp222
I0
I153
sI1
I0
sI2
I0
sI3
I0
ssI5
(dp223
I0
I229
sI1
I0
sI2
I0
sI3
I0
ssI6
(dp224
I0
I207
sI1
I0
sI2
I0
sI3
I0
ssI7
(dp225
I0
I120
sI1
I0
sI2
I0
sI3
I0
ssI8
(dp226
I0
I45
sI1
I0
sI2
I0
sI3
I0
ssI9
(dp227
I0
I10
sI1
I0
sI2
I0
sI3
I0
ssI10
(dp228
I0
I1
sI1
I0
sI2
I0
sI3
I0
sssg35
(dp229
sg37
(dp230
I0
(dp231
I0
F0.0018761157989501953
ssI1
(dp232
I0
F0.0019898414611816406
sI1
F0.0024530887603759766
sI2
F0.0023069381713867188
sI3
F0.002463817596435547
ssI2
(dp233
I0
F0.0018990039825439453
sI1
F0.0024499893188476562
sI2
F0.0022499561309814453
sI3
F0.0023598670959472656
ssI3
(dp234
I0
F0.0019330978393554688
sI1
F0.0023381710052490234
sI2
F0.0025980472564697266
sI3
F0.0022699832916259766
ssI4
(dp235
I0
F0.001895904541015625
sI1
F0.0022280216217041016
sI2
F0.0021049976348876953
sI3
F0.0022389888763427734
ssI5
(dp236
I0
F0.001898050308227539
sI1
F0.0021059513092041016
sI2
F0.002377033233642578
sI3
F0.002298116683959961
ssI6
(dp237
I0
F0.001870870590209961
sI1
F0.002218961715698242
sI2
F0.002438068389892578
sI3
F0.0025260448455810547
ssI7
(dp238
I0
F0.0018131732940673828
sI1
F0.0025119781494140625
sI2
F0.0024590492248535156
sI3
F0.002134084701538086
ssI8
(dp239
I0
F0.001806020736694336
sI1
F0.002177000045776367
sI2
F0.002168893814086914
sI3
F0.002254962921142578
ssI9
(dp240
I0
F0.0018720626831054688
sI1
F0.002089977264404297
sI2
F0.0022001266479492188
sI3
F0.0021491050720214844
ssI10
(dp241
I0
F0.0018889904022216797
sI1
F0.002232074737548828
sI2
F0.0024671554565429688
sI3
F0.002106904983520508
sssg46
F0.1640927791595459
sg47
(dp242
I0
(dp243
I0
F0.5892190933227539
ssI1
(dp244
I0
F0.7475690841674805
sI1
F0.7627851963043213
sI2
F0.7601718902587891
sI3
F0.783318042755127
ssI2
(dp245
I0
F0.7285950183868408
sI1
F0.7855861186981201
sI2
F0.7476119995117188
sI3
F0.7487759590148926
ssI3
(dp246
I0
F0.8309140205383301
sI1
F0.8530888557434082
sI2
F0.8789970874786377
sI3
F0.8571109771728516
ssI4
(dp247
I0
F0.8414919376373291
sI1
F0.912172794342041
sI2
F0.8265650272369385
sI3
F0.8274500370025635
ssI5
(dp248
I0
F0.8300480842590332
sI1
F0.8443729877471924
sI2
F0.8454270362854004
sI3
F0.851722002029419
ssI6
(dp249
I0
F0.8394770622253418
sI1
F0.8456189632415771
sI2
F0.8344979286193848
sI3
F0.8316609859466553
ssI7
(dp250
I0
F0.9099619388580322
sI1
F0.9127790927886963
sI2
F0.9177801609039307
sI3
F0.9153149127960205
ssI8
(dp251
I0
F0.906315803527832
sI1
F0.9180090427398682
sI2
F0.9201910495758057
sI3
F0.9201881885528564
ssI9
(dp252
I0
F0.9125761985778809
sI1
F0.9204840660095215
sI2
F0.9194009304046631
sI3
F0.9436509609222412
ssI10
(dp253
I0
F0.9085509777069092
sI1
F0.9182958602905273
sI2
F0.9199538230895996
sI3
F0.9184911251068115
sssg56
(dp254
I0
F0.01109004020690918
sI1
F0.030869007110595703
sI2
F0.01852893829345703
sI3
F0.024194955825805664
sI4
F0.022721052169799805
sI5
F0.023730993270874023
sI6
F0.02319192886352539
sI7
F0.026363849639892578
sI8
F0.026826143264770508
sI9
F0.02707695960998535
sI10
F0.02643108367919922
ssg58
(dp255
I0
(dp256
I0
F0.00085
ssI1
(dp257
I0
F0.006386
sI1
F0.000943
sI2
F0.001
sI3
F0.001078
ssI2
(dp258
I0
F0.00517
sI1
F0.001046
sI2
F0.001098
sI3
F0.00097
ssI3
(dp259
I0
F0.011849
sI1
F0.001055
sI2
F0.001113
sI3
F0.001132
ssI4
(dp260
I0
F0.011086
sI1
F0.001159
sI2
F0.001121
sI3
F0.000947
ssI5
(dp261
I0
F0.013961
sI1
F0.001048
sI2
F0.00099
sI3
F0.001515
ssI6
(dp262
I0
F0.01221
sI1
F0.00098
sI2
F0.00113
sI3
F0.001066
ssI7
(dp263
I0
F0.011702
sI1
F0.001123
sI2
F0.001191
sI3
F0.001077
ssI8
(dp264
I0
F0.006587
sI1
F0.001176
sI2
F0.001182
sI3
F0.001121
ssI9
(dp265
I0
F0.004981
sI1
F0.001005
sI2
F0.001149
sI3
F0.00118
ssI10
(dp266
I0
F0.005163
sI1
F0.001067
sI2
F0.001095
sI3
F0.001159
sssg67
(dp267
I0
(dp268
I0
I0
ssI1
(dp269
I0
I0
sI1
I0
sI2
I0
sI3
I0
ssI2
(dp270
I0
I8
sI1
I0
sI2
I0
sI3
I0
ssI3
(dp271
I0
I54
sI1
I0
sI2
I0
sI3
I0
ssI4
(dp272
I0
I164
sI1
I0
sI2
I0
sI3
I0
ssI5
(dp273
I0
I240
sI1
I0
sI2
I0
sI3
I0
ssI6
(dp274
I0
I204
sI1
I0
sI2
I0
sI3
I0
ssI7
(dp275
I0
I120
sI1
I0
sI2
I0
sI3
I0
ssI8
(dp276
I0
I45
sI1
I0
sI2
I0
sI3
I0
ssI9
(dp277
I0
I10
sI1
I0
sI2
I0
sI3
I0
ssI10
(dp278
I0
I1
sI1
I0
sI2
I0
sI3
I0
sssg76
(dp279
I0
(dp280
I0
F0.016232013702392578
ssI1
(dp281
I0
F0.018576860427856445
sI1
F0.018138885498046875
sI2
F0.018355131149291992
sI3
F0.01827406883239746
ssI2
(dp282
I0
F0.016833066940307617
sI1
F0.020813941955566406
sI2
F0.0174560546875
sI3
F0.018400907516479492
ssI3
(dp283
I0
F0.017726898193359375
sI1
F0.01785898208618164
sI2
F0.01831197738647461
sI3
F0.019309043884277344
ssI4
(dp284
I0
F0.0173189640045166
sI1
F0.01848912239074707
sI2
F0.017050981521606445
sI3
F0.017204999923706055
ssI5
(dp285
I0
F0.017731904983520508
sI1
F0.0172119140625
sI2
F0.01741504669189453
sI3
F0.017426013946533203
ssI6
(dp286
I0
F0.01797199249267578
sI1
F0.017488956451416016
sI2
F0.016883134841918945
sI3
F0.017843961715698242
ssI7
(dp287
I0
F0.017060041427612305
sI1
F0.017251014709472656
sI2
F0.017616987228393555
sI3
F0.01717996597290039
ssI8
(dp288
I0
F0.01717209815979004
sI1
F0.017087936401367188
sI2
F0.017451047897338867
sI3
F0.01755690574645996
ssI9
(dp289
I0
F0.017544984817504883
sI1
F0.017230987548828125
sI2
F0.01720595359802246
sI3
F0.01747894287109375
ssI10
(dp290
I0
F0.01703190803527832
sI1
F0.0175321102142334
sI2
F0.01771402359008789
sI3
F0.017920970916748047
sssg85
(dp291
I0
(dp292
I0
F0.06796407699584961
ssI1
(dp293
I0
F0.06885290145874023
sI1
F0.06638717651367188
sI2
F0.06650304794311523
sI3
F0.06859707832336426
ssI2
(dp294
I0
F0.20012617111206055
sI1
F0.06635618209838867
sI2
F0.06656980514526367
sI3
F0.06737208366394043
ssI3
(dp295
I0
F0.8504109382629395
sI1
F0.06800603866577148
sI2
F0.06883597373962402
sI3
F0.06702899932861328
ssI4
(dp296
I0
F0.9513609409332275
sI1
F0.06722712516784668
sI2
F0.06623005867004395
sI3
F0.06826591491699219
ssI5
(dp297
I0
F0.9017319679260254
sI1
F0.06740307807922363
sI2
F0.06691813468933105
sI3
F0.06711292266845703
ssI6
(dp298
I0
F0.9519178867340088
sI1
F0.06582903861999512
sI2
F0.06727313995361328
sI3
F0.06641292572021484
ssI7
(dp299
I0
F1.1518070697784424
sI1
F0.06628298759460449
sI2
F0.06629800796508789
sI3
F0.06640887260437012
ssI8
(dp300
I0
F0.6488180160522461
sI1
F0.0658731460571289
sI2
F0.06661319732666016
sI3
F0.06617307662963867
ssI9
(dp301
I0
F0.19862699508666992
sI1
F0.0662989616394043
sI2
F0.06659507751464844
sI3
F0.06635212898254395
ssI10
(dp302
I0
F0.09815597534179688
sI1
F0.06618094444274902
sI2
F0.06655716896057129
sI3
F0.06664204597473145
sssg94
(dp303
I0
(dp304
I0
I0
ssI1
(dp305
I0
I0
sI1
I0
sI2
I0
sI3
I0
ssI2
(dp306
I0
I8
sI1
I0
sI2
I0
sI3
I0
ssI3
(dp307
I0
I54
sI1
I0
sI2
I0
sI3
I0
ssI4
(dp308
I0
I152
sI1
I0
sI2
I0
sI3
I0
ssI5
(dp309
I0
I240
sI1
I0
sI2
I0
sI3
I0
ssI6
(dp310
I0
I200
sI1
I0
sI2
I0
sI3
I0
ssI7
(dp311
I0
I128
sI1
I0
sI2
I0
sI3
I0
ssI8
(dp312
I0
I45
sI1
I0
sI2
I0
sI3
I0
ssI9
(dp313
I0
I10
sI1
I0
sI2
I0
sI3
I0
ssI10
(dp314
I0
I1
sI1
I0
sI2
I0
sI3
I0
sssg103
(dp315
I0
(dp316
I0
F0.05174088478088379
ssI1
(dp317
I0
F0.04791402816772461
sI1
F0.05698680877685547
sI2
F0.0506291389465332
sI3
F0.04363703727722168
ssI2
(dp318
I0
F0.05767512321472168
sI1
F0.057702064514160156
sI2
F0.050618886947631836
sI3
F0.05092310905456543
ssI3
(dp319
I0
F0.6014668941497803
sI1
F0.05194687843322754
sI2
F0.043562889099121094
sI3
F0.04565310478210449
ssI4
(dp320
I0
F1.0007410049438477
sI1
F0.04192209243774414
sI2
F0.041869163513183594
sI3
F0.04508090019226074
ssI5
(dp321
I0
F0.951462984085083
sI1
F0.04298877716064453
sI2
F0.04308199882507324
sI3
F0.0435030460357666
ssI6
(dp322
I0
F0.9506490230560303
sI1
F0.042497873306274414
sI2
F0.0442509651184082
sI3
F0.04194188117980957
ssI7
(dp323
I0
F0.8998961448669434
sI1
F0.05138897895812988
sI2
F0.05037689208984375
sI3
F0.05073404312133789
ssI8
(dp324
I0
F0.050169944763183594
sI1
F0.050431013107299805
sI2
F0.05057406425476074
sI3
F0.04189705848693848
ssI9
(dp325
I0
F0.04963111877441406
sI1
F0.041323184967041016
sI2
F0.05033707618713379
sI3
F0.05030012130737305
ssI10
(dp326
I0
F0.050950050354003906
sI1
F0.0510711669921875
sI2
F0.05010700225830078
sI3
F0.041921138763427734
sssg112
(dp327
I0
(dp328
I0
F0.049517154693603516
ssI1
(dp329
I0
F0.0517878532409668
sI1
F0.048397064208984375
sI2
F0.049529075622558594
sI3
F0.04281306266784668
ssI2
(dp330
I0
F0.059593915939331055
sI1
F0.0532221794128418
sI2
F0.05080103874206543
sI3
F0.04973196983337402
ssI3
(dp331
I0
F0.2026381492614746
sI1
F0.06235814094543457
sI2
F0.04368400573730469
sI3
F0.042983055114746094
ssI4
(dp332
I0
F0.24924206733703613
sI1
F0.044020891189575195
sI2
F0.0421299934387207
sI3
F0.042534828186035156
ssI5
(dp333
I0
F0.25020813941955566
sI1
F0.04262113571166992
sI2
F0.04241204261779785
sI3
F0.04364800453186035
ssI6
(dp334
I0
F0.24955987930297852
sI1
F0.04116487503051758
sI2
F0.04135298728942871
sI3
F0.041818857192993164
ssI7
(dp335
I0
F0.19770193099975586
sI1
F0.049871206283569336
sI2
F0.050570011138916016
sI3
F0.05108284950256348
ssI8
(dp336
I0
F0.05076789855957031
sI1
F0.05093097686767578
sI2
F0.05005598068237305
sI3
F0.050330162048339844
ssI9
(dp337
I0
F0.05141019821166992
sI1
F0.04944801330566406
sI2
F0.05104708671569824
sI3
F0.04987287521362305
ssI10
(dp338
I0
F0.051403045654296875
sI1
F0.050373077392578125
sI2
F0.050431013107299805
sI3
F0.050505876541137695
ssss(dp339
g23
F0.9971047221980949
sg121
(F0.9040892450028158
F0.9986786342254799
tp340
sg122
((F0.996546494577574
F0.9967112418243218
tp341
S'Timeout'
p342
tp343
sg203
F0.9962361388575234
sg213
cdecimal
Decimal
p344
(S'1.000616111624280335732285777'
p345
tp346
Rp347
sg214
((F0.9966754608055831
F0.9966842337563985
tp348
g342
tp349
stp350
.