((dp0
S'k_crashes'
p1
I0
sS'load_priority'
p2
I00
sS'e'
p3
I15
sS'p_crashes'
p4
F0.015625
sS'k_omissions'
p5
I0
sS'epsilon'
p6
F0.01
sS'showProgress'
p7
I00
sS'p_delays'
p8
I0
sS'm'
p9
I6
sS'l'
p10
I6
sS'n'
p11
I6
sS'p_omissions'
p12
F0.015625
sS'countFaults'
p13
I00
sS'save_priority'
p14
I01
sS'probabalistic'
p15
I01
sS't'
p16
I6
sS'k_delays'
p17
I0
sS'precision'
p18
I10
sS'optimize'
p19
I01
sS'confidence'
p20
F0.999
s(dp21
S'timing_time'
p22
F3.0994415283203125e-06
sS'2mt'
p23
F26.956976890563965
sS'0o_inner'
p24
(dp25
g22
F2.0503997802734375e-05
sS'numSols_sharpSAT'
p26
(dp27
I0
(dp28
sI1
(dp29
sI2
(dp30
sI3
(dp31
ssS'saboteurProbability'
p32
(dp33
I0
F0.038889169692993164
sI1
F6.313961982727051
sI2
F187.31147408485413
sI3
F2400.4835579395294
ssS'immediatefailureConstraints'
p34
(dp35
I0
(dp36
sI1
(dp37
sI2
(dp38
sI3
(dp39
ssS'generate program'
p40
F0.6088240146636963
sS'cnf to dimacs'
p41
(dp42
I0
(dp43
sI1
(dp44
sI2
(dp45
sI3
(dp46
ssS'k_maxSimulationConstraints_BOOL'
p47
(dp48
I0
F0.04216623306274414
sI1
F0.042083024978637695
sI2
F0.04162287712097168
sI3
F0.042543888092041016
ssS'sharpSAT_time'
p49
(dp50
I0
(dp51
sI1
(dp52
sI2
(dp53
sI3
(dp54
ssS'numSols_approxMC'
p55
(dp56
I0
(dp57
sI1
(dp58
sI2
(dp59
sI3
(dp60
ssS'z3 to cnf'
p61
(dp62
I0
(dp63
sI1
(dp64
sI2
(dp65
sI3
(dp66
ssS'mis_time'
p67
(dp68
I0
(dp69
sI1
(dp70
sI2
(dp71
sI3
(dp72
ssS'numSols_approxMC_mis'
p73
(dp74
I0
(dp75
sI1
(dp76
sI2
(dp77
sI3
(dp78
ssS'approxMC_time'
p79
(dp80
I0
(dp81
sI1
(dp82
sI2
(dp83
sI3
(dp84
ssS'approxMC_mis_time'
p85
(dp86
I0
(dp87
sI1
(dp88
sI2
(dp89
sI3
(dp90
sssS'0b'
p91
F687.9089481830597
sS'0a'
p92
F4220.085003852844
sS'0a_inner'
p93
(dp94
g22
F1.9788742065429688e-05
sg26
(dp95
I0
(dp96
sI1
(dp97
sI2
(dp98
sI3
(dp99
sI4
(dp100
ssg32
(dp101
I0
F0.04622817039489746
sI1
F0.24158811569213867
sI2
F12.20541501045227
sI3
F1806.5817430019379
sI4
F2400.0615141391754
ssg34
(dp102
I0
(dp103
sI1
(dp104
sI2
(dp105
sI3
(dp106
sI4
(dp107
ssg40
F0.6120870113372803
sg41
(dp108
I0
(dp109
sI1
(dp110
sI2
(dp111
sI3
(dp112
sI4
(dp113
ssg47
(dp114
I0
F0.04314684867858887
sI1
F0.04153299331665039
sI2
F0.04145097732543945
sI3
F0.041587114334106445
sI4
F0.04267692565917969
ssg49
(dp115
I0
(dp116
sI1
(dp117
sI2
(dp118
sI3
(dp119
sI4
(dp120
ssg55
(dp121
I0
(dp122
sI1
(dp123
sI2
(dp124
sI3
(dp125
sI4
(dp126
ssg61
(dp127
I0
(dp128
sI1
(dp129
sI2
(dp130
sI3
(dp131
sI4
(dp132
ssg67
(dp133
I0
(dp134
sI1
(dp135
sI2
(dp136
sI3
(dp137
sI4
(dp138
ssg73
(dp139
I0
(dp140
sI1
(dp141
sI2
(dp142
sI3
(dp143
sI4
(dp144
ssg79
(dp145
I0
(dp146
sI1
(dp147
sI2
(dp148
sI3
(dp149
sI4
(dp150
ssg85
(dp151
I0
(dp152
sI1
(dp153
sI2
(dp154
sI3
(dp155
sI4
(dp156
sssS'doomed_state_timing'
p157
(dp158
S'total'
p159
F2538.982183933258
sS'solving'
p160
F784.4678664207458
sS'excluding'
p161
F0.005942821502685547
sS'constraints'
p162
F1696.7068767547607
ssS'2m'
p163
F97.3665041923523
sS'1m_inner'
p164
(dp165
S'sharpsat'
p166
F17.3907
sg22
F2.1457672119140625e-06
sS'dimacs to file'
p167
F0.008013010025024414
sS'cnf to dimacs'
p168
F4.219286918640137
sS'generate program'
p169
F0.6012730598449707
sS'assign weights'
p170
F0.10234189033508301
sS'z3 to cnf'
p171
F0.006969928741455078
sS'get umc'
p172
F0.2937030792236328
ssS'1m'
p173
F22.714945077896118
sS'0o'
p174
F2594.9417810440063
sS'0b_inner'
p175
(dp176
g22
F0.0007827281951904297
sg26
(dp177
I0
(dp178
I0
I0
ssI1
(dp179
I0
I4
sI1
I3
sI2
I0
sI3
I0
sI4
I0
sI5
I0
ssI2
(dp180
I0
I55
sI1
I41
sI2
I0
sI3
I0
sI4
I0
sI5
I0
ssI3
(dp181
I0
I330
sI1
I254
sI2
I0
sI3
I0
sI4
I0
sI5
I0
ssI4
(dp182
I0
I1173
sI1
I951
sI2
I0
sI3
I0
sI4
I0
sI5
I0
ssI5
(dp183
I0
I2813
sI1
I2415
sI2
I0
sI3
I0
sI4
I0
sI5
I0
ssI6
(dp184
I0
I4883
sI1
I4417
sI2
I0
sI3
I0
sI4
I0
sI5
I0
ssI7
(dp185
I0
I6386
sI1
I6021
sI2
I0
sI3
I0
sI4
I0
sI5
I0
ssI8
(dp186
I0
I6424
sI1
I6234
sI2
I0
sI3
I0
sI4
I0
sI5
I0
ssI9
(dp187
I0
I5004
sI1
I4941
sI2
I0
sI3
I0
sI4
I0
sI5
I0
ssI10
(dp188
I0
I3003
sI1
I2991
sI2
I0
sI3
I0
sI4
I0
sI5
I0
ssI11
(dp189
I0
I1365
sI1
I1364
sI2
I0
sI3
I0
sI4
I0
sI5
I0
ssI12
(dp190
I0
I455
sI1
I455
sI2
I0
sI3
I0
sI4
I0
sI5
I0
ssI13
(dp191
I0
I105
sI1
I105
sI2
I0
sI3
I0
sI4
I0
sI5
I0
ssI14
(dp192
I0
I15
sI1
I15
sI2
I0
sI3
I0
sI4
I0
sI5
I0
ssI15
(dp193
I0
I1
sI1
I1
sI2
I0
sI3
I0
sI4
I0
sI5
I0
sssg32
(dp194
sg34
(dp195
I0
(dp196
I0
F0.0028247833251953125
ssI1
(dp197
I0
F0.0028989315032958984
sI1
F0.0032520294189453125
sI2
F0.003239870071411133
sI3
F0.003442049026489258
sI4
F0.0032460689544677734
sI5
F0.0032110214233398438
ssI2
(dp198
I0
F0.002855062484741211
sI1
F0.0037589073181152344
sI2
F0.003339052200317383
sI3
F0.0031881332397460938
sI4
F0.003187894821166992
sI5
F0.0032341480255126953
ssI3
(dp199
I0
F0.0028162002563476562
sI1
F0.0033278465270996094
sI2
F0.0038928985595703125
sI3
F0.0035369396209716797
sI4
F0.0033020973205566406
sI5
F0.0033261775970458984
ssI4
(dp200
I0
F0.0028541088104248047
sI1
F0.0036160945892333984
sI2
F0.003785848617553711
sI3
F0.0034399032592773438
sI4
F0.0031168460845947266
sI5
F0.0030879974365234375
ssI5
(dp201
I0
F0.0028030872344970703
sI1
F0.003381013870239258
sI2
F0.0032279491424560547
sI3
F0.0032219886779785156
sI4
F0.003392934799194336
sI5
F0.0031239986419677734
ssI6
(dp202
I0
F0.0027930736541748047
sI1
F0.0036420822143554688
sI2
F0.0032129287719726562
sI3
F0.003155946731567383
sI4
F0.0031909942626953125
sI5
F0.003170013427734375
ssI7
(dp203
I0
F0.002858877182006836
sI1
F0.0031499862670898438
sI2
F0.003448963165283203
sI3
F0.0031609535217285156
sI4
F0.00374603271484375
sI5
F0.003098011016845703
ssI8
(dp204
I0
F0.002833127975463867
sI1
F0.0030868053436279297
sI2
F0.0036377906799316406
sI3
F0.0032510757446289062
sI4
F0.003319978713989258
sI5
F0.0030989646911621094
ssI9
(dp205
I0
F0.0027658939361572266
sI1
F0.0036830902099609375
sI2
F0.0032699108123779297
sI3
F0.0032401084899902344
sI4
F0.0030879974365234375
sI5
F0.0031859874725341797
ssI10
(dp206
I0
F0.002835988998413086
sI1
F0.0032160282135009766
sI2
F0.0038890838623046875
sI3
F0.003122091293334961
sI4
F0.0031430721282958984
sI5
F0.003136873245239258
ssI11
(dp207
I0
F0.0027952194213867188
sI1
F0.0031800270080566406
sI2
F0.0032341480255126953
sI3
F0.00339508056640625
sI4
F0.003055095672607422
sI5
F0.003113985061645508
ssI12
(dp208
I0
F0.0027818679809570312
sI1
F0.0037369728088378906
sI2
F0.0031850337982177734
sI3
F0.003942012786865234
sI4
F0.003175973892211914
sI5
F0.0034019947052001953
ssI13
(dp209
I0
F0.0028579235076904297
sI1
F0.003180980682373047
sI2
F0.00395512580871582
sI3
F0.0032351016998291016
sI4
F0.003448009490966797
sI5
F0.0032100677490234375
ssI14
(dp210
I0
F0.0028150081634521484
sI1
F0.003248929977416992
sI2
F0.0031287670135498047
sI3
F0.0031430721282958984
sI4
F0.0031249523162841797
sI5
F0.003114938735961914
ssI15
(dp211
I0
F0.0027849674224853516
sI1
F0.0036840438842773438
sI2
F0.003175973892211914
sI3
F0.0035490989685058594
sI4
F0.003467082977294922
sI5
F0.0031919479370117188
sssg40
F0.5731229782104492
sg41
(dp212
I0
(dp213
I0
F1.9877498149871826
ssI1
(dp214
I0
F2.2000529766082764
sI1
F2.2098469734191895
sI2
F2.217895984649658
sI3
F2.2143800258636475
sI4
F2.2144389152526855
sI5
F2.2141671180725098
ssI2
(dp215
I0
F2.1991350650787354
sI1
F2.2129900455474854
sI2
F2.191102981567383
sI3
F2.1847259998321533
sI4
F2.21423602104187
sI5
F2.1840150356292725
ssI3
(dp216
I0
F2.315609931945801
sI1
F2.32566499710083
sI2
F2.317911148071289
sI3
F2.3400650024414062
sI4
F2.34194016456604
sI5
F2.319957971572876
ssI4
(dp217
I0
F2.2939538955688477
sI1
F2.30374813079834
sI2
F2.309540033340454
sI3
F2.3128910064697266
sI4
F2.307537078857422
sI5
F2.3039400577545166
ssI5
(dp218
I0
F2.2935380935668945
sI1
F2.3261311054229736
sI2
F2.311941146850586
sI3
F2.314612865447998
sI4
F2.3093390464782715
sI5
F2.339054822921753
ssI6
(dp219
I0
F2.297389030456543
sI1
F2.3203659057617188
sI2
F2.3164501190185547
sI3
F2.3172659873962402
sI4
F2.3127188682556152
sI5
F2.315999984741211
ssI7
(dp220
I0
F2.435969114303589
sI1
F2.4520981311798096
sI2
F2.492547035217285
sI3
F2.475414991378784
sI4
F2.4514009952545166
sI5
F2.4548850059509277
ssI8
(dp221
I0
F2.4441020488739014
sI1
F2.466949939727783
sI2
F2.4580941200256348
sI3
F2.4566469192504883
sI4
F2.4802520275115967
sI5
F2.45243501663208
ssI9
(dp222
I0
F2.4383339881896973
sI1
F2.4595870971679688
sI2
F2.457406997680664
sI3
F2.4542081356048584
sI4
F2.456591844558716
sI5
F2.459420919418335
ssI10
(dp223
I0
F2.4352049827575684
sI1
F2.457163095474243
sI2
F2.4622111320495605
sI3
F2.4536449909210205
sI4
F2.454334020614624
sI5
F2.466150999069214
ssI11
(dp224
I0
F2.4396419525146484
sI1
F2.567293882369995
sI2
F2.4618771076202393
sI3
F2.487478017807007
sI4
F2.4668209552764893
sI5
F2.4664900302886963
ssI12
(dp225
I0
F2.4517619609832764
sI1
F2.4632937908172607
sI2
F2.4740099906921387
sI3
F2.4677910804748535
sI4
F2.493971824645996
sI5
F2.4733619689941406
ssI13
(dp226
I0
F2.4532370567321777
sI1
F2.4691579341888428
sI2
F2.4825470447540283
sI3
F2.4649479389190674
sI4
F2.467639923095703
sI5
F2.453376054763794
ssI14
(dp227
I0
F2.439937114715576
sI1
F2.4776699542999268
sI2
F2.453601837158203
sI3
F2.4585769176483154
sI4
F2.48442006111145
sI5
F2.457190990447998
ssI15
(dp228
I0
F2.586242914199829
sI1
F2.600358009338379
sI2
F2.5964529514312744
sI3
F2.6060500144958496
sI4
F2.598198890686035
sI5
F2.5993330478668213
sssg47
(dp229
I0
F0.02521800994873047
sI1
F0.033709049224853516
sI2
F0.033164024353027344
sI3
F0.0391077995300293
sI4
F0.03918790817260742
sI5
F0.039115190505981445
sI6
F0.0394589900970459
sI7
F0.04610705375671387
sI8
F0.04556703567504883
sI9
F0.04503202438354492
sI10
F0.04575085639953613
sI11
F0.04610800743103027
sI12
F0.04549384117126465
sI13
F0.04564714431762695
sI14
F0.045555830001831055
sI15
F0.05113387107849121
ssg49
(dp230
I0
(dp231
I0
F0.002085
ssI1
(dp232
I0
F0.071081
sI1
F0.038932
sI2
F0.002403
sI3
F0.002376
sI4
F0.002533
sI5
F0.002482
ssI2
(dp233
I0
F0.021346
sI1
F0.010904
sI2
F0.00243
sI3
F0.002473
sI4
F0.002433
sI5
F0.002596
ssI3
(dp234
I0
F0.07841
sI1
F0.037144
sI2
F0.002655
sI3
F0.00278
sI4
F0.00268
sI5
F0.002559
ssI4
(dp235
I0
F0.095176
sI1
F0.031369
sI2
F0.002651
sI3
F0.002738
sI4
F0.002728
sI5
F0.002663
ssI5
(dp236
I0
F0.179772
sI1
F0.046867
sI2
F0.002609
sI3
F0.002695
sI4
F0.002647
sI5
F0.002741
ssI6
(dp237
I0
F0.256855
sI1
F0.069342
sI2
F0.002551
sI3
F0.002589
sI4
F0.002683
sI5
F0.002672
ssI7
(dp238
I0
F0.350752
sI1
F0.088476
sI2
F0.002766
sI3
F0.002805
sI4
F0.002815
sI5
F0.00282
ssI8
(dp239
I0
F0.299214
sI1
F0.09013
sI2
F0.002719
sI3
F0.002753
sI4
F0.002815
sI5
F0.002815
ssI9
(dp240
I0
F0.280023
sI1
F0.058874
sI2
F0.002796
sI3
F0.002809
sI4
F0.002707
sI5
F0.002851
ssI10
(dp241
I0
F0.149814
sI1
F0.047361
sI2
F0.002848
sI3
F0.002878
sI4
F0.002784
sI5
F0.002797
ssI11
(dp242
I0
F0.090744
sI1
F0.03692
sI2
F0.002752
sI3
F0.002727
sI4
F0.002687
sI5
F0.002675
ssI12
(dp243
I0
F0.047807
sI1
F0.024211
sI2
F0.002652
sI3
F0.002679
sI4
F0.002646
sI5
F0.002867
ssI13
(dp244
I0
F0.026123
sI1
F0.01618
sI2
F0.002729
sI3
F0.002887
sI4
F0.002981
sI5
F0.002935
ssI14
(dp245
I0
F0.023381
sI1
F0.014655
sI2
F0.002666
sI3
F0.002843
sI4
F0.002753
sI5
F0.002861
ssI15
(dp246
I0
F0.03812
sI1
F0.023123
sI2
F0.003002
sI3
F0.002885
sI4
F0.003088
sI5
F0.002906
sssg55
(dp247
I0
(dp248
I0
I0
ssI1
(dp249
I0
I4
sI1
I3
sI2
I0
sI3
I0
sI4
I0
sI5
I0
ssI2
(dp250
I0
I56
sI1
I41
sI2
I0
sI3
I0
sI4
I0
sI5
I0
ssI3
(dp251
I0
I336
sI1
I272
sI2
I0
sI3
I0
sI4
I0
sI5
I0
ssI4
(dp252
I0
I1344
sI1
I1024
sI2
I0
sI3
I0
sI4
I0
sI5
I0
ssI5
(dp253
I0
I2688
sI1
I2368
sI2
I0
sI3
I0
sI4
I0
sI5
I0
ssI6
(dp254
I0
I4992
sI1
I4608
sI2
I0
sI3
I0
sI4
I0
sI5
I0
ssI7
(dp255
I0
I6272
sI1
I5760
sI2
I0
sI3
I0
sI4
I0
sI5
I0
ssI8
(dp256
I0
I6144
sI1
I5888
sI2
I0
sI3
I0
sI4
I0
sI5
I0
ssI9
(dp257
I0
I5120
sI1
I5376
sI2
I0
sI3
I0
sI4
I0
sI5
I0
ssI10
(dp258
I0
I3072
sI1
I2816
sI2
I0
sI3
I0
sI4
I0
sI5
I0
ssI11
(dp259
I0
I1344
sI1
I1344
sI2
I0
sI3
I0
sI4
I0
sI5
I0
ssI12
(dp260
I0
I448
sI1
I448
sI2
I0
sI3
I0
sI4
I0
sI5
I0
ssI13
(dp261
I0
I104
sI1
I102
sI2
I0
sI3
I0
sI4
I0
sI5
I0
ssI14
(dp262
I0
I15
sI1
I15
sI2
I0
sI3
I0
sI4
I0
sI5
I0
ssI15
(dp263
I0
I1
sI1
I1
sI2
I0
sI3
I0
sI4
I0
sI5
I0
sssg61
(dp264
I0
(dp265
I0
F0.04631304740905762
ssI1
(dp266
I0
F0.04690814018249512
sI1
F0.047070980072021484
sI2
F0.04728412628173828
sI3
F0.04776716232299805
sI4
F0.0481719970703125
sI5
F0.047499895095825195
ssI2
(dp267
I0
F0.04685497283935547
sI1
F0.047575950622558594
sI2
F0.04707694053649902
sI3
F0.04663801193237305
sI4
F0.046811819076538086
sI5
F0.04711198806762695
ssI3
(dp268
I0
F0.046423912048339844
sI1
F0.04659581184387207
sI2
F0.046874046325683594
sI3
F0.0478818416595459
sI4
F0.04669690132141113
sI5
F0.047827959060668945
ssI4
(dp269
I0
F0.04591107368469238
sI1
F0.047052860260009766
sI2
F0.04684782028198242
sI3
F0.04675102233886719
sI4
F0.04647493362426758
sI5
F0.046167850494384766
ssI5
(dp270
I0
F0.046510934829711914
sI1
F0.04629182815551758
sI2
F0.04679393768310547
sI3
F0.046476125717163086
sI4
F0.04697012901306152
sI5
F0.0473630428314209
ssI6
(dp271
I0
F0.04628610610961914
sI1
F0.04679393768310547
sI2
F0.04704093933105469
sI3
F0.046473026275634766
sI4
F0.04696011543273926
sI5
F0.046613216400146484
ssI7
(dp272
I0
F0.046391963958740234
sI1
F0.04633378982543945
sI2
F0.04683518409729004
sI3
F0.04731488227844238
sI4
F0.04666280746459961
sI5
F0.04706001281738281
ssI8
(dp273
I0
F0.046852827072143555
sI1
F0.04665708541870117
sI2
F0.04713106155395508
sI3
F0.046633005142211914
sI4
F0.04708504676818848
sI5
F0.04737997055053711
ssI9
(dp274
I0
F0.04642796516418457
sI1
F0.046929121017456055
sI2
F0.04659605026245117
sI3
F0.0466618537902832
sI4
F0.046469926834106445
sI5
F0.0465998649597168
ssI10
(dp275
I0
F0.04634594917297363
sI1
F0.0472109317779541
sI2
F0.0485987663269043
sI3
F0.04663491249084473
sI4
F0.0465850830078125
sI5
F0.04660797119140625
ssI11
(dp276
I0
F0.04626607894897461
sI1
F0.046525001525878906
sI2
F0.04705190658569336
sI3
F0.04700899124145508
sI4
F0.046885013580322266
sI5
F0.04717206954956055
ssI12
(dp277
I0
F0.04632306098937988
sI1
F0.04729509353637695
sI2
F0.046443939208984375
sI3
F0.04674792289733887
sI4
F0.04727816581726074
sI5
F0.04769396781921387
ssI13
(dp278
I0
F0.04643893241882324
sI1
F0.04721713066101074
sI2
F0.04971599578857422
sI3
F0.046920061111450195
sI4
F0.04735302925109863
sI5
F0.04651212692260742
ssI14
(dp279
I0
F0.046380043029785156
sI1
F0.046705007553100586
sI2
F0.04679107666015625
sI3
F0.04653811454772949
sI4
F0.046630859375
sI5
F0.0476839542388916
ssI15
(dp280
I0
F0.046958208084106445
sI1
F0.04787898063659668
sI2
F0.047437191009521484
sI3
F0.04732918739318848
sI4
F0.04726815223693848
sI5
F0.04743003845214844
sssg67
(dp281
I0
(dp282
I0
F0.06573891639709473
ssI1
(dp283
I0
F0.34963297843933105
sI1
F0.19885492324829102
sI2
F0.10528802871704102
sI3
F0.09824800491333008
sI4
F0.09880590438842773
sI5
F0.09838390350341797
ssI2
(dp284
I0
F4.657001972198486
sI1
F1.350480079650879
sI2
F0.09900903701782227
sI3
F0.09909677505493164
sI4
F0.09951496124267578
sI5
F0.10044598579406738
ssI3
(dp285
I0
F9.770020961761475
sI1
F3.4057788848876953
sI2
F0.1013190746307373
sI3
F0.10092592239379883
sI4
F0.10640311241149902
sI5
F0.1011359691619873
ssI4
(dp286
I0
F13.026569128036499
sI1
F3.7101128101348877
sI2
F0.10116696357727051
sI3
F0.1074361801147461
sI4
F0.10113906860351562
sI5
F0.10100102424621582
ssI5
(dp287
I0
F11.423452138900757
sI1
F3.3080451488494873
sI2
F0.10120987892150879
sI3
F0.10169696807861328
sI4
F0.1011209487915039
sI5
F0.10100698471069336
ssI6
(dp288
I0
F12.971855878829956
sI1
F3.458066940307617
sI2
F0.10100317001342773
sI3
F0.10793900489807129
sI4
F0.10093212127685547
sI5
F0.10562896728515625
ssI7
(dp289
I0
F14.931692123413086
sI1
F3.558173894882202
sI2
F0.10059714317321777
sI3
F0.10043597221374512
sI4
F0.10750913619995117
sI5
F0.10058712959289551
ssI8
(dp290
I0
F14.624934911727905
sI1
F4.660616874694824
sI2
F0.10088300704956055
sI3
F0.10112905502319336
sI4
F0.10045003890991211
sI5
F0.10111880302429199
ssI9
(dp291
I0
F12.976231098175049
sI1
F4.5606160163879395
sI2
F0.1006019115447998
sI3
F0.101348876953125
sI4
F0.1012730598449707
sI5
F0.10064816474914551
ssI10
(dp292
I0
F13.679848194122314
sI1
F4.6095290184021
sI2
F0.10059404373168945
sI3
F0.10090804100036621
sI4
F0.10061287879943848
sI5
F0.10123395919799805
ssI11
(dp293
I0
F12.425900936126709
sI1
F4.76093602180481
sI2
F0.10150599479675293
sI3
F0.10148406028747559
sI4
F0.10120010375976562
sI5
F0.10082578659057617
ssI12
(dp294
I0
F12.07637095451355
sI1
F3.9584929943084717
sI2
F0.10090184211730957
sI3
F0.1010129451751709
sI4
F0.11106705665588379
sI5
F0.1012718677520752
ssI13
(dp295
I0
F8.569333791732788
sI1
F2.4561820030212402
sI2
F0.10058093070983887
sI3
F0.10111689567565918
sI4
F0.10983085632324219
sI5
F0.10117506980895996
ssI14
(dp296
I0
F0.6513149738311768
sI1
F1.0020558834075928
sI2
F0.10221004486083984
sI3
F0.10107421875
sI4
F0.10370898246765137
sI5
F0.10186600685119629
ssI15
(dp297
I0
F0.1501939296722412
sI1
F0.15047788619995117
sI2
F0.10139012336730957
sI3
F0.10200285911560059
sI4
F0.10058188438415527
sI5
F0.10115385055541992
sssg73
(dp298
I0
(dp299
I0
I0
ssI1
(dp300
I0
I4
sI1
I3
sI2
I0
sI3
I0
sI4
I0
sI5
I0
ssI2
(dp301
I0
I58
sI1
I41
sI2
I0
sI3
I0
sI4
I0
sI5
I0
ssI3
(dp302
I0
I304
sI1
I264
sI2
I0
sI3
I0
sI4
I0
sI5
I0
ssI4
(dp303
I0
I1280
sI1
I960
sI2
I0
sI3
I0
sI4
I0
sI5
I0
ssI5
(dp304
I0
I2560
sI1
I2432
sI2
I0
sI3
I0
sI4
I0
sI5
I0
ssI6
(dp305
I0
I4992
sI1
I4480
sI2
I0
sI3
I0
sI4
I0
sI5
I0
ssI7
(dp306
I0
I6272
sI1
I6144
sI2
I0
sI3
I0
sI4
I0
sI5
I0
ssI8
(dp307
I0
I6144
sI1
I6016
sI2
I0
sI3
I0
sI4
I0
sI5
I0
ssI9
(dp308
I0
I4992
sI1
I5248
sI2
I0
sI3
I0
sI4
I0
sI5
I0
ssI10
(dp309
I0
I3008
sI1
I3008
sI2
I0
sI3
I0
sI4
I0
sI5
I0
ssI11
(dp310
I0
I1536
sI1
I1408
sI2
I0
sI3
I0
sI4
I0
sI5
I0
ssI12
(dp311
I0
I464
sI1
I464
sI2
I0
sI3
I0
sI4
I0
sI5
I0
ssI13
(dp312
I0
I104
sI1
I102
sI2
I0
sI3
I0
sI4
I0
sI5
I0
ssI14
(dp313
I0
I15
sI1
I15
sI2
I0
sI3
I0
sI4
I0
sI5
I0
ssI15
(dp314
I0
I1
sI1
I1
sI2
I0
sI3
I0
sI4
I0
sI5
I0
sssg79
(dp315
I0
(dp316
I0
F0.04184412956237793
ssI1
(dp317
I0
F0.05026507377624512
sI1
F0.05075502395629883
sI2
F0.0502011775970459
sI3
F0.05109286308288574
sI4
F0.050817012786865234
sI5
F0.05060100555419922
ssI2
(dp318
I0
F2.252281904220581
sI1
F0.06768012046813965
sI2
F0.05116391181945801
sI3
F0.05090498924255371
sI4
F0.05111503601074219
sI5
F0.05162978172302246
ssI3
(dp319
I0
F5.909608840942383
sI1
F3.156872034072876
sI2
F0.05312514305114746
sI3
F0.05184507369995117
sI4
F0.0532078742980957
sI5
F0.0544130802154541
ssI4
(dp320
I0
F8.717155933380127
sI1
F5.910940170288086
sI2
F0.0529329776763916
sI3
F0.051774024963378906
sI4
F0.05321502685546875
sI5
F0.053337812423706055
ssI5
(dp321
I0
F9.168958187103271
sI1
F5.107591152191162
sI2
F0.0526118278503418
sI3
F0.05261588096618652
sI4
F0.051815032958984375
sI5
F0.05268406867980957
ssI6
(dp322
I0
F15.781523942947388
sI1
F7.364049911499023
sI2
F0.05260801315307617
sI3
F0.05265307426452637
sI4
F0.0540928840637207
sI5
F0.05244088172912598
ssI7
(dp323
I0
F28.30413007736206
sI1
F18.432950019836426
sI2
F0.053212881088256836
sI3
F0.05215597152709961
sI4
F0.05223989486694336
sI5
F0.05222797393798828
ssI8
(dp324
I0
F35.67524003982544
sI1
F13.072788953781128
sI2
F0.052037954330444336
sI3
F0.052596092224121094
sI4
F0.05242300033569336
sI5
F0.05227088928222656
ssI9
(dp325
I0
F14.028904914855957
sI1
F8.265406131744385
sI2
F0.052168846130371094
sI3
F0.05274081230163574
sI4
F0.05252790451049805
sI5
F0.05337405204772949
ssI10
(dp326
I0
F10.26849889755249
sI1
F6.512783050537109
sI2
F0.05275988578796387
sI3
F0.05219292640686035
sI4
F0.05219888687133789
sI5
F0.05317997932434082
ssI11
(dp327
I0
F18.28726601600647
sI1
F6.563056945800781
sI2
F0.054049015045166016
sI3
F0.054077863693237305
sI4
F0.052739858627319336
sI5
F0.05321097373962402
ssI12
(dp328
I0
F10.069898128509521
sI1
F3.4558300971984863
sI2
F0.052438974380493164
sI3
F0.052577972412109375
sI4
F0.05391192436218262
sI5
F0.05364394187927246
ssI13
(dp329
I0
F3.1556899547576904
sI1
F1.6043109893798828
sI2
F0.05255699157714844
sI3
F0.052854061126708984
sI4
F0.05283784866333008
sI5
F0.0529170036315918
ssI14
(dp330
I0
F0.06977009773254395
sI1
F0.07628417015075684
sI2
F0.05276298522949219
sI3
F0.052163124084472656
sI4
F0.05241107940673828
sI5
F0.05275392532348633
ssI15
(dp331
I0
F0.06939291954040527
sI1
F0.07030296325683594
sI2
F0.0535740852355957
sI3
F0.05335497856140137
sI4
F0.05178093910217285
sI5
F0.05318784713745117
sssg85
(dp332
I0
(dp333
I0
F0.04147791862487793
ssI1
(dp334
I0
F0.05018305778503418
sI1
F0.050581932067871094
sI2
F0.05000805854797363
sI3
F0.050518035888671875
sI4
F0.049781084060668945
sI5
F0.05058407783508301
ssI2
(dp335
I0
F0.3484351634979248
sI1
F0.06683802604675293
sI2
F0.05044198036193848
sI3
F0.052359819412231445
sI4
F0.0516049861907959
sI5
F0.055529117584228516
ssI3
(dp336
I0
F0.5029327869415283
sI1
F0.40230512619018555
sI2
F0.05343198776245117
sI3
F0.05281519889831543
sI4
F0.05227994918823242
sI5
F0.05567193031311035
ssI4
(dp337
I0
F0.6518189907073975
sI1
F0.5512800216674805
sI2
F0.05808305740356445
sI3
F0.05211901664733887
sI4
F0.05222296714782715
sI5
F0.05173897743225098
ssI5
(dp338
I0
F0.6505758762359619
sI1
F0.6008667945861816
sI2
F0.05239510536193848
sI3
F0.051503896713256836
sI4
F0.052839040756225586
sI5
F0.05413103103637695
ssI6
(dp339
I0
F0.7013840675354004
sI1
F0.6031830310821533
sI2
F0.05392003059387207
sI3
F0.052358150482177734
sI4
F0.05291581153869629
sI5
F0.05273795127868652
ssI7
(dp340
I0
F0.8024370670318604
sI1
F0.6526060104370117
sI2
F0.05190300941467285
sI3
F0.05243396759033203
sI4
F0.052256107330322266
sI5
F0.052239179611206055
ssI8
(dp341
I0
F0.9024569988250732
sI1
F0.6030299663543701
sI2
F0.05281996726989746
sI3
F0.051651954650878906
sI4
F0.05256986618041992
sI5
F0.052824974060058594
ssI9
(dp342
I0
F0.7517671585083008
sI1
F0.6519241333007812
sI2
F0.05219697952270508
sI3
F0.052960872650146484
sI4
F0.052677154541015625
sI5
F0.05329012870788574
ssI10
(dp343
I0
F0.7014880180358887
sI1
F0.6519370079040527
sI2
F0.05291485786437988
sI3
F0.05256795883178711
sI4
F0.05309605598449707
sI5
F0.05319499969482422
ssI11
(dp344
I0
F0.7062649726867676
sI1
F0.6014189720153809
sI2
F0.05278897285461426
sI3
F0.05288982391357422
sI4
F0.0526731014251709
sI5
F0.052555084228515625
ssI12
(dp345
I0
F0.6518950462341309
sI1
F0.5521459579467773
sI2
F0.05249500274658203
sI3
F0.05342411994934082
sI4
F0.05517911911010742
sI5
F0.052809953689575195
ssI13
(dp346
I0
F0.4524991512298584
sI1
F0.40193915367126465
sI2
F0.05333995819091797
sI3
F0.05461883544921875
sI4
F0.052377939224243164
sI5
F0.05217385292053223
ssI14
(dp347
I0
F0.06917595863342285
sI1
F0.06880903244018555
sI2
F0.052043914794921875
sI3
F0.054965972900390625
sI4
F0.05330491065979004
sI5
F0.05407905578613281
ssI15
(dp348
I0
F0.06856703758239746
sI1
F0.07020306587219238
sI2
F0.05280900001525879
sI3
F0.052639007568359375
sI4
F0.053030967712402344
sI5
F0.053758859634399414
ssss(dp349
g23
F0.8939459741162165
sg91
(F0.6109734260424854
F0.963541862434762
tp350
sg92
((F0.8660499542120862
F0.9062208519998526
tp351
S'Timeout'
p352
tp353
sg163
F0.8881554185124063
sg173
cdecimal
Decimal
p354
(S'0.9000580542647025566234872759'
p355
tp356
Rp357
sg174
((F0.7839117130666531
F0.9313980407371462
tp358
g352
tp359
stp360
.