((dp0
S'k_crashes'
p1
I0
sS'load_priority'
p2
I00
sS'e'
p3
I17
sS'p_crashes'
p4
F0.015625
sS'k_omissions'
p5
I0
sS'epsilon'
p6
F0.01
sS'showProgress'
p7
I00
sS'p_delays'
p8
I0
sS'm'
p9
I7
sS'l'
p10
I7
sS'n'
p11
I7
sS'p_omissions'
p12
F0.015625
sS'countFaults'
p13
I00
sS'save_priority'
p14
I01
sS'probabalistic'
p15
I01
sS't'
p16
I7
sS'k_delays'
p17
I0
sS'precision'
p18
I10
sS'optimize'
p19
I01
sS'confidence'
p20
F0.999
s(dp21
S'timing_time'
p22
F3.0994415283203125e-06
sS'2mt'
p23
F35.835556983947754
sS'0o_inner'
p24
(dp25
g22
F2.2649765014648438e-05
sS'numSols_sharpSAT'
p26
(dp27
I0
(dp28
sI1
(dp29
sI2
(dp30
sI3
(dp31
ssS'saboteurProbability'
p32
(dp33
I0
F0.06388592720031738
sI1
F4.4141011238098145
sI2
F163.7371780872345
sI3
F2400.8467919826508
ssS'immediatefailureConstraints'
p34
(dp35
I0
(dp36
sI1
(dp37
sI2
(dp38
sI3
(dp39
ssS'generate program'
p40
F0.7779169082641602
sS'cnf to dimacs'
p41
(dp42
I0
(dp43
sI1
(dp44
sI2
(dp45
sI3
(dp46
ssS'k_maxSimulationConstraints_BOOL'
p47
(dp48
I0
F0.05164504051208496
sI1
F0.0517270565032959
sI2
F0.051084041595458984
sI3
F0.05181002616882324
ssS'sharpSAT_time'
p49
(dp50
I0
(dp51
sI1
(dp52
sI2
(dp53
sI3
(dp54
ssS'numSols_approxMC'
p55
(dp56
I0
(dp57
sI1
(dp58
sI2
(dp59
sI3
(dp60
ssS'z3 to cnf'
p61
(dp62
I0
(dp63
sI1
(dp64
sI2
(dp65
sI3
(dp66
ssS'mis_time'
p67
(dp68
I0
(dp69
sI1
(dp70
sI2
(dp71
sI3
(dp72
ssS'numSols_approxMC_mis'
p73
(dp74
I0
(dp75
sI1
(dp76
sI2
(dp77
sI3
(dp78
ssS'approxMC_time'
p79
(dp80
I0
(dp81
sI1
(dp82
sI2
(dp83
sI3
(dp84
ssS'approxMC_mis_time'
p85
(dp86
I0
(dp87
sI1
(dp88
sI2
(dp89
sI3
(dp90
sssS'0b'
p91
F1699.3656198978424
sS'0a'
p92
F2414.703626871109
sS'0a_inner'
p93
(dp94
g22
F1.7881393432617188e-05
sg26
(dp95
I0
(dp96
sI1
(dp97
sI2
(dp98
sI3
(dp99
ssg32
(dp100
I0
F0.09204411506652832
sI1
F0.4448239803314209
sI2
F12.973156929016113
sI3
F2400.112426996231
ssg34
(dp101
I0
(dp102
sI1
(dp103
sI2
(dp104
sI3
(dp105
ssg40
F0.7698628902435303
sg41
(dp106
I0
(dp107
sI1
(dp108
sI2
(dp109
sI3
(dp110
ssg47
(dp111
I0
F0.05162501335144043
sI1
F0.051609039306640625
sI2
F0.051460981369018555
sI3
F0.05105113983154297
ssg49
(dp112
I0
(dp113
sI1
(dp114
sI2
(dp115
sI3
(dp116
ssg55
(dp117
I0
(dp118
sI1
(dp119
sI2
(dp120
sI3
(dp121
ssg61
(dp122
I0
(dp123
sI1
(dp124
sI2
(dp125
sI3
(dp126
ssg67
(dp127
I0
(dp128
sI1
(dp129
sI2
(dp130
sI3
(dp131
ssg73
(dp132
I0
(dp133
sI1
(dp134
sI2
(dp135
sI3
(dp136
ssg79
(dp137
I0
(dp138
sI1
(dp139
sI2
(dp140
sI3
(dp141
ssg85
(dp142
I0
(dp143
sI1
(dp144
sI2
(dp145
sI3
(dp146
sssS'doomed_state_timing'
p147
(dp148
S'total'
p149
F2529.7922356128693
sS'solving'
p150
F888.8975718021393
sS'excluding'
p151
F0.0033071041107177734
sS'constraints'
p152
F1600.1223044395447
ssS'2m'
p153
F118.53916096687317
sS'1m_inner'
p154
(dp155
S'sharpsat'
p156
F72.3514
sg22
F1.9073486328125e-06
sS'dimacs to file'
p157
F0.010921001434326172
sS'cnf to dimacs'
p158
F5.322883129119873
sS'generate program'
p159
F0.7696921825408936
sS'assign weights'
p160
F0.13188982009887695
sS'z3 to cnf'
p161
F0.009185791015625
sS'get umc'
p162
F0.3692471981048584
ssS'1m'
p163
F79.10931992530823
sS'0o'
p164
F2570.0654311180115
sS'0b_inner'
p165
(dp166
g22
F0.0011165142059326172
sg26
(dp167
I0
(dp168
I0
I0
ssI1
(dp169
I0
I2
sI1
I2
sI2
I0
sI3
I0
sI4
I0
sI5
I0
sI6
I0
ssI2
(dp170
I0
I39
sI1
I35
sI2
I0
sI3
I0
sI4
I0
sI5
I0
sI6
I0
ssI3
(dp171
I0
I317
sI1
I274
sI2
I0
sI3
I0
sI4
I0
sI5
I0
sI6
I0
ssI4
(dp172
I0
I1496
sI1
I1290
sI2
I0
sI3
I0
sI4
I0
sI5
I0
sI6
I0
ssI5
(dp173
I0
I4705
sI1
I4121
sI2
I0
sI3
I0
sI4
I0
sI5
I0
sI6
I0
ssI6
(dp174
I0
I10612
sI1
I9526
sI2
I0
sI3
I0
sI4
I0
sI5
I0
sI6
I0
ssI7
(dp175
I0
I17940
sI1
I16556
sI2
I0
sI3
I0
sI4
I0
sI5
I0
sI6
I0
ssI8
(dp176
I0
I23381
sI1
I22153
sI2
I0
sI3
I0
sI4
I0
sI5
I0
sI6
I0
ssI9
(dp177
I0
I23902
sI1
I23145
sI2
I0
sI3
I0
sI4
I0
sI5
I0
sI6
I0
ssI10
(dp178
I0
I19325
sI1
I19007
sI2
I0
sI3
I0
sI4
I0
sI5
I0
sI6
I0
ssI11
(dp179
I0
I12353
sI1
I12266
sI2
I0
sI3
I0
sI4
I0
sI5
I0
sI6
I0
ssI12
(dp180
I0
I6186
sI1
I6172
sI2
I0
sI3
I0
sI4
I0
sI5
I0
sI6
I0
ssI13
(dp181
I0
I2380
sI1
I2379
sI2
I0
sI3
I0
sI4
I0
sI5
I0
sI6
I0
ssI14
(dp182
I0
I680
sI1
I680
sI2
I0
sI3
I0
sI4
I0
sI5
I0
sI6
I0
ssI15
(dp183
I0
I136
sI1
I136
sI2
I0
sI3
I0
sI4
I0
sI5
I0
sI6
I0
ssI16
(dp184
I0
I17
sI1
I17
sI2
I0
sI3
I0
sI4
I0
sI5
I0
sI6
I0
ssI17
(dp185
I0
I1
sI1
I1
sI2
I0
sI3
I0
sI4
I0
sI5
I0
sI6
I0
sssg32
(dp186
sg34
(dp187
I0
(dp188
I0
F0.0030138492584228516
ssI1
(dp189
I0
F0.0030701160430908203
sI1
F0.0034780502319335938
sI2
F0.003776073455810547
sI3
F0.00341796875
sI4
F0.0034379959106445312
sI5
F0.0034639835357666016
sI6
F0.003699064254760742
ssI2
(dp190
I0
F0.0030350685119628906
sI1
F0.003506898880004883
sI2
F0.0034830570220947266
sI3
F0.003416776657104492
sI4
F0.0036780834197998047
sI5
F0.0034470558166503906
sI6
F0.0034890174865722656
ssI3
(dp191
I0
F0.003036022186279297
sI1
F0.0034928321838378906
sI2
F0.0034279823303222656
sI3
F0.003428936004638672
sI4
F0.003671884536743164
sI5
F0.003595113754272461
sI6
F0.0034868717193603516
ssI4
(dp192
I0
F0.003056049346923828
sI1
F0.003426074981689453
sI2
F0.0035440921783447266
sI3
F0.0034940242767333984
sI4
F0.003532886505126953
sI5
F0.003434896469116211
sI6
F0.0034279823303222656
ssI5
(dp193
I0
F0.0030100345611572266
sI1
F0.0036640167236328125
sI2
F0.003487825393676758
sI3
F0.003545045852661133
sI4
F0.0034799575805664062
sI5
F0.003473997116088867
sI6
F0.0034210681915283203
ssI6
(dp194
I0
F0.003055095672607422
sI1
F0.0037360191345214844
sI2
F0.0036649703979492188
sI3
F0.003520965576171875
sI4
F0.0034461021423339844
sI5
F0.003475189208984375
sI6
F0.0034029483795166016
ssI7
(dp195
I0
F0.0030210018157958984
sI1
F0.0034461021423339844
sI2
F0.0038928985595703125
sI3
F0.003755807876586914
sI4
F0.0036110877990722656
sI5
F0.003528118133544922
sI6
F0.0038688182830810547
ssI8
(dp196
I0
F0.003031015396118164
sI1
F0.0034608840942382812
sI2
F0.004431009292602539
sI3
F0.0035250186920166016
sI4
F0.0034470558166503906
sI5
F0.003507852554321289
sI6
F0.0035839080810546875
ssI9
(dp197
I0
F0.003038167953491211
sI1
F0.0034689903259277344
sI2
F0.003509044647216797
sI3
F0.0034291744232177734
sI4
F0.0035200119018554688
sI5
F0.0034139156341552734
sI6
F0.003520965576171875
ssI10
(dp198
I0
F0.003017902374267578
sI1
F0.004088163375854492
sI2
F0.0034630298614501953
sI3
F0.0033719539642333984
sI4
F0.003509998321533203
sI5
F0.0035979747772216797
sI6
F0.003406047821044922
ssI11
(dp199
I0
F0.0030100345611572266
sI1
F0.0038368701934814453
sI2
F0.0034208297729492188
sI3
F0.0038988590240478516
sI4
F0.003407001495361328
sI5
F0.0035178661346435547
sI6
F0.0035240650177001953
ssI12
(dp200
I0
F0.003027200698852539
sI1
F0.0034770965576171875
sI2
F0.004099130630493164
sI3
F0.003882884979248047
sI4
F0.003618001937866211
sI5
F0.0035028457641601562
sI6
F0.003996133804321289
ssI13
(dp201
I0
F0.003020048141479492
sI1
F0.003493070602416992
sI2
F0.0034530162811279297
sI3
F0.003467082977294922
sI4
F0.004084110260009766
sI5
F0.003626108169555664
sI6
F0.0034339427947998047
ssI14
(dp202
I0
F0.0030221939086914062
sI1
F0.0039899349212646484
sI2
F0.003446817398071289
sI3
F0.003446817398071289
sI4
F0.0037729740142822266
sI5
F0.0034101009368896484
sI6
F0.0034570693969726562
ssI15
(dp203
I0
F0.0030219554901123047
sI1
F0.0034110546112060547
sI2
F0.0034558773040771484
sI3
F0.0033779144287109375
sI4
F0.003462076187133789
sI5
F0.0037620067596435547
sI6
F0.0038728713989257812
ssI16
(dp204
I0
F0.0030269622802734375
sI1
F0.003529071807861328
sI2
F0.003442049026489258
sI3
F0.0034608840942382812
sI4
F0.003462076187133789
sI5
F0.0035500526428222656
sI6
F0.0034499168395996094
ssI17
(dp205
I0
F0.0030159950256347656
sI1
F0.003426074981689453
sI2
F0.0035130977630615234
sI3
F0.0037419795989990234
sI4
F0.0036230087280273438
sI5
F0.0034029483795166016
sI6
F0.003587961196899414
sssg40
F0.730370044708252
sg41
(dp206
I0
(dp207
I0
F2.518630027770996
ssI1
(dp208
I0
F2.7488632202148438
sI1
F2.7739601135253906
sI2
F2.770551919937134
sI3
F2.7824978828430176
sI4
F2.7750959396362305
sI5
F2.7743170261383057
sI6
F2.7718310356140137
ssI2
(dp209
I0
F2.7798449993133545
sI1
F2.785953998565674
sI2
F2.780478000640869
sI3
F2.7738780975341797
sI4
F2.7656919956207275
sI5
F2.7693281173706055
sI6
F2.769547939300537
ssI3
(dp210
I0
F2.881589889526367
sI1
F2.901937961578369
sI2
F2.9044461250305176
sI3
F2.9441611766815186
sI4
F3.0025930404663086
sI5
F3.0076980590820312
sI6
F2.9428229331970215
ssI4
(dp211
I0
F2.9229180812835693
sI1
F2.901865005493164
sI2
F2.9798240661621094
sI3
F2.9442758560180664
sI4
F2.9087040424346924
sI5
F2.9184770584106445
sI6
F2.906693935394287
ssI5
(dp212
I0
F2.886043071746826
sI1
F2.90157413482666
sI2
F2.903228998184204
sI3
F2.906952142715454
sI4
F2.9125518798828125
sI5
F2.9146900177001953
sI6
F2.945858955383301
ssI6
(dp213
I0
F2.8912370204925537
sI1
F2.9206149578094482
sI2
F2.9065749645233154
sI3
F2.910944938659668
sI4
F2.9033820629119873
sI5
F2.91198992729187
sI6
F2.9111549854278564
ssI7
(dp214
I0
F3.0645058155059814
sI1
F3.064141035079956
sI2
F3.0683889389038086
sI3
F3.060128927230835
sI4
F3.076327085494995
sI5
F3.095283031463623
sI6
F3.0723021030426025
ssI8
(dp215
I0
F3.0400969982147217
sI1
F3.0630810260772705
sI2
F3.0648040771484375
sI3
F3.088191032409668
sI4
F3.1066160202026367
sI5
F3.0625100135803223
sI6
F3.068727970123291
ssI9
(dp216
I0
F3.0499989986419678
sI1
F3.0600249767303467
sI2
F3.0658819675445557
sI3
F3.071923017501831
sI4
F3.1141459941864014
sI5
F3.071605920791626
sI6
F3.0819098949432373
ssI10
(dp217
I0
F3.035823106765747
sI1
F3.066296100616455
sI2
F3.05342698097229
sI3
F3.0611870288848877
sI4
F3.072273015975952
sI5
F3.0634679794311523
sI6
F3.0615780353546143
ssI11
(dp218
I0
F3.0389649868011475
sI1
F3.0662291049957275
sI2
F3.067572832107544
sI3
F3.114586114883423
sI4
F3.0834381580352783
sI5
F3.0863990783691406
sI6
F3.0784239768981934
ssI12
(dp219
I0
F3.039440155029297
sI1
F3.0675339698791504
sI2
F3.097935914993286
sI3
F3.1086621284484863
sI4
F3.0633201599121094
sI5
F3.0589828491210938
sI6
F3.064466953277588
ssI13
(dp220
I0
F3.04435396194458
sI1
F3.0702550411224365
sI2
F3.0941789150238037
sI3
F3.0723800659179688
sI4
F3.082664966583252
sI5
F3.0796048641204834
sI6
F3.0765957832336426
ssI14
(dp221
I0
F3.0384199619293213
sI1
F3.069298028945923
sI2
F3.077605962753296
sI3
F3.082556962966919
sI4
F3.0740630626678467
sI5
F3.069756031036377
sI6
F3.073448896408081
ssI15
(dp222
I0
F3.211444854736328
sI1
F3.281298875808716
sI2
F3.249629020690918
sI3
F3.253056049346924
sI4
F3.2421510219573975
sI5
F3.2465250492095947
sI6
F3.241251230239868
ssI16
(dp223
I0
F3.2182719707489014
sI1
F3.2764949798583984
sI2
F3.2317330837249756
sI3
F3.2413148880004883
sI4
F3.2305071353912354
sI5
F3.2327399253845215
sI6
F3.2691760063171387
ssI17
(dp224
I0
F3.210273027420044
sI1
F3.2405569553375244
sI2
F3.2283520698547363
sI3
F3.22996187210083
sI4
F3.2357239723205566
sI5
F3.233880043029785
sI6
F3.2362589836120605
sssg47
(dp225
I0
F0.030193090438842773
sI1
F0.03858590126037598
sI2
F0.038340091705322266
sI3
F0.04497504234313965
sI4
F0.04545092582702637
sI5
F0.04434394836425781
sI6
F0.044775962829589844
sI7
F0.05179405212402344
sI8
F0.05182981491088867
sI9
F0.0516359806060791
sI10
F0.051062822341918945
sI11
F0.05156207084655762
sI12
F0.051312923431396484
sI13
F0.05227303504943848
sI14
F0.05118989944458008
sI15
F0.05886101722717285
sI16
F0.05803203582763672
sI17
F0.05863189697265625
ssg49
(dp226
I0
(dp227
I0
F0.002858
ssI1
(dp228
I0
F0.112337
sI1
F0.038774
sI2
F0.003213
sI3
F0.003245
sI4
F0.003026
sI5
F0.003251
sI6
F0.003124
ssI2
(dp229
I0
F0.027711
sI1
F0.01178
sI2
F0.003166
sI3
F0.003318
sI4
F0.003256
sI5
F0.003219
sI6
F0.003231
ssI3
(dp230
I0
F0.126053
sI1
F0.04308
sI2
F0.00327
sI3
F0.003849
sI4
F0.003374
sI5
F0.00333
sI6
F0.003467
ssI4
(dp231
I0
F0.132827
sI1
F0.038174
sI2
F0.003378
sI3
F0.003384
sI4
F0.003311
sI5
F0.003257
sI6
F0.003302
ssI5
(dp232
I0
F0.26096
sI1
F0.063934
sI2
F0.003171
sI3
F0.003346
sI4
F0.003422
sI5
F0.003344
sI6
F0.00335
ssI6
(dp233
I0
F0.392555
sI1
F0.078914
sI2
F0.00329
sI3
F0.003398
sI4
F0.00321
sI5
F0.003489
sI6
F0.003255
ssI7
(dp234
I0
F0.57339
sI1
F0.156749
sI2
F0.00351
sI3
F0.003543
sI4
F0.003346
sI5
F0.003437
sI6
F0.003335
ssI8
(dp235
I0
F0.706338
sI1
F0.172874
sI2
F0.003453
sI3
F0.003427
sI4
F0.003586
sI5
F0.003438
sI6
F0.003523
ssI9
(dp236
I0
F0.545984
sI1
F0.146458
sI2
F0.003421
sI3
F0.003529
sI4
F0.003468
sI5
F0.003521
sI6
F0.003501
ssI10
(dp237
I0
F0.451302
sI1
F0.115674
sI2
F0.003417
sI3
F0.003439
sI4
F0.003428
sI5
F0.003535
sI6
F0.003498
ssI11
(dp238
I0
F0.321085
sI1
F0.103811
sI2
F0.003444
sI3
F0.003417
sI4
F0.003417
sI5
F0.003431
sI6
F0.00347
ssI12
(dp239
I0
F0.20839
sI1
F0.06179
sI2
F0.003375
sI3
F0.003498
sI4
F0.00351
sI5
F0.003552
sI6
F0.003398
ssI13
(dp240
I0
F0.123479
sI1
F0.041627
sI2
F0.003515
sI3
F0.003496
sI4
F0.003538
sI5
F0.003512
sI6
F0.003364
ssI14
(dp241
I0
F0.068068
sI1
F0.028193
sI2
F0.003368
sI3
F0.003461
sI4
F0.003407
sI5
F0.003476
sI6
F0.003418
ssI15
(dp242
I0
F0.087315
sI1
F0.032889
sI2
F0.003646
sI3
F0.003467
sI4
F0.003725
sI5
F0.003526
sI6
F0.003594
ssI16
(dp243
I0
F0.033088
sI1
F0.015942
sI2
F0.003657
sI3
F0.003639
sI4
F0.003629
sI5
F0.003626
sI6
F0.003756
ssI17
(dp244
I0
F0.025555
sI1
F0.015592
sI2
F0.003513
sI3
F0.003706
sI4
F0.003526
sI5
F0.003779
sI6
F0.004327
sssg55
(dp245
I0
(dp246
I0
I0
ssI1
(dp247
I0
I2
sI1
I2
sI2
I0
sI3
I0
sI4
I0
sI5
I0
sI6
I0
ssI2
(dp248
I0
I39
sI1
I35
sI2
I0
sI3
I0
sI4
I0
sI5
I0
sI6
I0
ssI3
(dp249
I0
I320
sI1
I304
sI2
I0
sI3
I0
sI4
I0
sI5
I0
sI6
I0
ssI4
(dp250
I0
I1504
sI1
I1344
sI2
I0
sI3
I0
sI4
I0
sI5
I0
sI6
I0
ssI5
(dp251
I0
I4864
sI1
I4608
sI2
I0
sI3
I0
sI4
I0
sI5
I0
sI6
I0
ssI6
(dp252
I0
I9728
sI1
I9472
sI2
I0
sI3
I0
sI4
I0
sI5
I0
sI6
I0
ssI7
(dp253
I0
I17408
sI1
I15872
sI2
I0
sI3
I0
sI4
I0
sI5
I0
sI6
I0
ssI8
(dp254
I0
I20992
sI1
I22016
sI2
I0
sI3
I0
sI4
I0
sI5
I0
sI6
I0
ssI9
(dp255
I0
I21504
sI1
I24576
sI2
I0
sI3
I0
sI4
I0
sI5
I0
sI6
I0
ssI10
(dp256
I0
I19968
sI1
I19968
sI2
I0
sI3
I0
sI4
I0
sI5
I0
sI6
I0
ssI11
(dp257
I0
I12544
sI1
I12032
sI2
I0
sI3
I0
sI4
I0
sI5
I0
sI6
I0
ssI12
(dp258
I0
I6144
sI1
I6144
sI2
I0
sI3
I0
sI4
I0
sI5
I0
sI6
I0
ssI13
(dp259
I0
I2432
sI1
I2560
sI2
I0
sI3
I0
sI4
I0
sI5
I0
sI6
I0
ssI14
(dp260
I0
I656
sI1
I656
sI2
I0
sI3
I0
sI4
I0
sI5
I0
sI6
I0
ssI15
(dp261
I0
I140
sI1
I132
sI2
I0
sI3
I0
sI4
I0
sI5
I0
sI6
I0
ssI16
(dp262
I0
I17
sI1
I17
sI2
I0
sI3
I0
sI4
I0
sI5
I0
sI6
I0
ssI17
(dp263
I0
I1
sI1
I1
sI2
I0
sI3
I0
sI4
I0
sI5
I0
sI6
I0
sssg61
(dp264
I0
(dp265
I0
F0.058351993560791016
ssI1
(dp266
I0
F0.05936384201049805
sI1
F0.06034994125366211
sI2
F0.06189107894897461
sI3
F0.06097602844238281
sI4
F0.0601809024810791
sI5
F0.06012392044067383
sI6
F0.05999612808227539
ssI2
(dp267
I0
F0.05927014350891113
sI1
F0.06019306182861328
sI2
F0.06146883964538574
sI3
F0.06026887893676758
sI4
F0.060890913009643555
sI5
F0.06047391891479492
sI6
F0.060305118560791016
ssI3
(dp268
I0
F0.060537099838256836
sI1
F0.06000709533691406
sI2
F0.060606956481933594
sI3
F0.06009387969970703
sI4
F0.07204484939575195
sI5
F0.06395292282104492
sI6
F0.06171703338623047
ssI4
(dp269
I0
F0.05989503860473633
sI1
F0.060610055923461914
sI2
F0.06067299842834473
sI3
F0.06259417533874512
sI4
F0.06071305274963379
sI5
F0.060504913330078125
sI6
F0.061181068420410156
ssI5
(dp270
I0
F0.06052398681640625
sI1
F0.0605008602142334
sI2
F0.06025218963623047
sI3
F0.06016802787780762
sI4
F0.06023693084716797
sI5
F0.060341835021972656
sI6
F0.06037616729736328
ssI6
(dp271
I0
F0.06058502197265625
sI1
F0.060606956481933594
sI2
F0.06037783622741699
sI3
F0.061341047286987305
sI4
F0.0603029727935791
sI5
F0.06055593490600586
sI6
F0.06060481071472168
ssI7
(dp272
I0
F0.060778141021728516
sI1
F0.06038498878479004
sI2
F0.06137704849243164
sI3
F0.06105995178222656
sI4
F0.06150412559509277
sI5
F0.06081199645996094
sI6
F0.06247282028198242
ssI8
(dp273
I0
F0.060433149337768555
sI1
F0.06104588508605957
sI2
F0.062233924865722656
sI3
F0.06089305877685547
sI4
F0.06119990348815918
sI5
F0.06115984916687012
sI6
F0.06119799613952637
ssI9
(dp274
I0
F0.06058812141418457
sI1
F0.06051898002624512
sI2
F0.06043696403503418
sI3
F0.06041693687438965
sI4
F0.06261301040649414
sI5
F0.060977935791015625
sI6
F0.06075692176818848
ssI10
(dp275
I0
F0.06059694290161133
sI1
F0.06070303916931152
sI2
F0.060317039489746094
sI3
F0.06101799011230469
sI4
F0.06067299842834473
sI5
F0.0612030029296875
sI6
F0.06011199951171875
ssI11
(dp276
I0
F0.06067705154418945
sI1
F0.06062602996826172
sI2
F0.06075906753540039
sI3
F0.061430931091308594
sI4
F0.06081581115722656
sI5
F0.06200385093688965
sI6
F0.06136012077331543
ssI12
(dp277
I0
F0.059921979904174805
sI1
F0.060667991638183594
sI2
F0.06095719337463379
sI3
F0.08376193046569824
sI4
F0.06104397773742676
sI5
F0.06099700927734375
sI6
F0.06434893608093262
ssI13
(dp278
I0
F0.060031890869140625
sI1
F0.061367034912109375
sI2
F0.06035614013671875
sI3
F0.06144595146179199
sI4
F0.060765981674194336
sI5
F0.06061410903930664
sI6
F0.06076407432556152
ssI14
(dp279
I0
F0.0600430965423584
sI1
F0.06247591972351074
sI2
F0.060920000076293945
sI3
F0.06095719337463379
sI4
F0.061325788497924805
sI5
F0.06056809425354004
sI6
F0.06190299987792969
ssI15
(dp280
I0
F0.06094813346862793
sI1
F0.060920000076293945
sI2
F0.06076407432556152
sI3
F0.0613560676574707
sI4
F0.06086897850036621
sI5
F0.061486005783081055
sI6
F0.06175994873046875
ssI16
(dp281
I0
F0.060101985931396484
sI1
F0.06189107894897461
sI2
F0.06081700325012207
sI3
F0.061431169509887695
sI4
F0.06081080436706543
sI5
F0.0612790584564209
sI6
F0.06124591827392578
ssI17
(dp282
I0
F0.06068086624145508
sI1
F0.06181907653808594
sI2
F0.061131954193115234
sI3
F0.06103515625
sI4
F0.061675071716308594
sI5
F0.06143498420715332
sI6
F0.06090188026428223
sssg67
(dp283
I0
(dp284
I0
F0.09933805465698242
ssI1
(dp285
I0
F0.20001888275146484
sI1
F0.2500269412994385
sI2
F0.09889817237854004
sI3
F0.09897184371948242
sI4
F0.10025215148925781
sI5
F0.1003870964050293
sI6
F0.09947490692138672
ssI2
(dp286
I0
F6.262386083602905
sI1
F2.0035560131073
sI2
F0.10844707489013672
sI3
F0.09879016876220703
sI4
F0.0999288558959961
sI5
F0.10068988800048828
sI6
F0.09984588623046875
ssI3
(dp287
I0
F17.785036087036133
sI1
F5.411571025848389
sI2
F0.1025400161743164
sI3
F0.1038820743560791
sI4
F0.10228300094604492
sI5
F0.10043096542358398
sI6
F0.09936404228210449
ssI4
(dp288
I0
F24.70169496536255
sI1
F4.759304046630859
sI2
F0.10193014144897461
sI3
F0.09927606582641602
sI4
F0.09926295280456543
sI5
F0.09904694557189941
sI6
F0.09919404983520508
ssI5
(dp289
I0
F32.567216873168945
sI1
F4.7097392082214355
sI2
F0.10045599937438965
sI3
F0.09957408905029297
sI4
F0.09935998916625977
sI5
F0.10008001327514648
sI6
F0.1000361442565918
ssI6
(dp290
I0
F28.75919795036316
sI1
F5.158537149429321
sI2
F0.09912681579589844
sI3
F0.09995794296264648
sI4
F0.09967708587646484
sI5
F0.09968900680541992
sI6
F0.09888696670532227
ssI7
(dp291
I0
F25.502885103225708
sI1
F4.909450054168701
sI2
F0.09899711608886719
sI3
F0.0997779369354248
sI4
F0.09945201873779297
sI5
F0.09892487525939941
sI6
F0.09933996200561523
ssI8
(dp292
I0
F36.725204944610596
sI1
F6.362364053726196
sI2
F0.10025620460510254
sI3
F0.0999300479888916
sI4
F0.10035109519958496
sI5
F0.09924197196960449
sI6
F0.0998539924621582
ssI9
(dp293
I0
F39.130624771118164
sI1
F5.6109459400177
sI2
F0.09964108467102051
sI3
F0.09983301162719727
sI4
F0.09983706474304199
sI5
F0.09949183464050293
sI6
F0.09885287284851074
ssI10
(dp294
I0
F37.37813997268677
sI1
F6.963942050933838
sI2
F0.14052820205688477
sI3
F0.09918785095214844
sI4
F0.09951090812683105
sI5
F0.09967494010925293
sI6
F0.09917712211608887
ssI11
(dp295
I0
F36.973296880722046
sI1
F6.3093719482421875
sI2
F0.0994260311126709
sI3
F0.09909200668334961
sI4
F0.09913802146911621
sI5
F0.09888815879821777
sI6
F0.0990898609161377
ssI12
(dp296
I0
F28.50890612602234
sI1
F5.210920095443726
sI2
F0.1004180908203125
sI3
F0.09912300109863281
sI4
F0.09976506233215332
sI5
F0.09948110580444336
sI6
F0.09931778907775879
ssI13
(dp297
I0
F33.62107586860657
sI1
F5.56107497215271
sI2
F0.09954190254211426
sI3
F0.10014700889587402
sI4
F0.09933304786682129
sI5
F0.09913778305053711
sI6
F0.09946608543395996
ssI14
(dp298
I0
F26.00337791442871
sI1
F5.512036085128784
sI2
F0.100006103515625
sI3
F0.09903883934020996
sI4
F0.09892892837524414
sI5
F0.09913897514343262
sI6
F0.0998079776763916
ssI15
(dp299
I0
F13.97874903678894
sI1
F5.3598198890686035
sI2
F0.09945797920227051
sI3
F0.09887003898620605
sI4
F0.09960699081420898
sI5
F0.09911084175109863
sI6
F0.09901714324951172
ssI16
(dp300
I0
F1.551581859588623
sI1
F1.404299020767212
sI2
F0.09982705116271973
sI3
F0.09936714172363281
sI4
F0.0994110107421875
sI5
F0.09873008728027344
sI6
F0.09960198402404785
ssI17
(dp301
I0
F0.2501199245452881
sI1
F0.14921808242797852
sI2
F0.09916019439697266
sI3
F0.09939384460449219
sI4
F0.0990610122680664
sI5
F0.09924507141113281
sI6
F0.09926199913024902
sssg73
(dp302
I0
(dp303
I0
I0
ssI1
(dp304
I0
I2
sI1
I2
sI2
I0
sI3
I0
sI4
I0
sI5
I0
sI6
I0
ssI2
(dp305
I0
I39
sI1
I35
sI2
I0
sI3
I0
sI4
I0
sI5
I0
sI6
I0
ssI3
(dp306
I0
I320
sI1
I248
sI2
I0
sI3
I0
sI4
I0
sI5
I0
sI6
I0
ssI4
(dp307
I0
I1504
sI1
I1216
sI2
I0
sI3
I0
sI4
I0
sI5
I0
sI6
I0
ssI5
(dp308
I0
I4480
sI1
I4224
sI2
I0
sI3
I0
sI4
I0
sI5
I0
sI6
I0
ssI6
(dp309
I0
I10752
sI1
I9216
sI2
I0
sI3
I0
sI4
I0
sI5
I0
sI6
I0
ssI7
(dp310
I0
I17408
sI1
I17920
sI2
I0
sI3
I0
sI4
I0
sI5
I0
sI6
I0
ssI8
(dp311
I0
I21504
sI1
I20992
sI2
I0
sI3
I0
sI4
I0
sI5
I0
sI6
I0
ssI9
(dp312
I0
I23552
sI1
I22016
sI2
I0
sI3
I0
sI4
I0
sI5
I0
sI6
I0
ssI10
(dp313
I0
I20992
sI1
I18944
sI2
I0
sI3
I0
sI4
I0
sI5
I0
sI6
I0
ssI11
(dp314
I0
I11776
sI1
I12288
sI2
I0
sI3
I0
sI4
I0
sI5
I0
sI6
I0
ssI12
(dp315
I0
I6144
sI1
I6016
sI2
I0
sI3
I0
sI4
I0
sI5
I0
sI6
I0
ssI13
(dp316
I0
I2304
sI1
I2432
sI2
I0
sI3
I0
sI4
I0
sI5
I0
sI6
I0
ssI14
(dp317
I0
I688
sI1
I704
sI2
I0
sI3
I0
sI4
I0
sI5
I0
sI6
I0
ssI15
(dp318
I0
I132
sI1
I136
sI2
I0
sI3
I0
sI4
I0
sI5
I0
sI6
I0
ssI16
(dp319
I0
I17
sI1
I17
sI2
I0
sI3
I0
sI4
I0
sI5
I0
sI6
I0
ssI17
(dp320
I0
I1
sI1
I1
sI2
I0
sI3
I0
sI4
I0
sI5
I0
sI6
I0
sssg79
(dp321
I0
(dp322
I0
F0.04314899444580078
ssI1
(dp323
I0
F0.06693696975708008
sI1
F0.06909012794494629
sI2
F0.05116701126098633
sI3
F0.05045604705810547
sI4
F0.051226139068603516
sI5
F0.05126309394836426
sI6
F0.05220484733581543
ssI2
(dp324
I0
F0.09988999366760254
sI1
F0.06759190559387207
sI2
F0.05105900764465332
sI3
F0.051336050033569336
sI4
F0.05114603042602539
sI5
F0.05107688903808594
sI6
F0.05137896537780762
ssI3
(dp325
I0
F9.266268968582153
sI1
F3.104356050491333
sI2
F0.05068707466125488
sI3
F0.07114195823669434
sI4
F0.06973600387573242
sI5
F0.06895613670349121
sI6
F0.050894975662231445
ssI4
(dp326
I0
F17.985976934432983
sI1
F5.257874011993408
sI2
F0.06986188888549805
sI3
F0.051577091217041016
sI4
F0.050711870193481445
sI5
F0.05072212219238281
sI6
F0.050843000411987305
ssI5
(dp327
I0
F17.382812976837158
sI1
F7.56409215927124
sI2
F0.051928043365478516
sI3
F0.051058053970336914
sI4
F0.05091595649719238
sI5
F0.050856828689575195
sI6
F0.05081295967102051
ssI6
(dp328
I0
F34.76189088821411
sI1
F13.724764823913574
sI2
F0.06702804565429688
sI3
F0.05167222023010254
sI4
F0.051757097244262695
sI5
F0.050958871841430664
sI6
F0.059700965881347656
ssI7
(dp329
I0
F131.84814190864563
sI1
F35.06538200378418
sI2
F0.06885695457458496
sI3
F0.06812882423400879
sI4
F0.06758284568786621
sI5
F0.06731104850769043
sI6
F0.06744623184204102
ssI8
(dp330
I0
F106.03294706344604
sI1
F39.33319807052612
sI2
F0.06719493865966797
sI3
F0.06738495826721191
sI4
F0.06718587875366211
sI5
F0.0681300163269043
sI6
F0.06723999977111816
ssI9
(dp331
I0
F97.1030740737915
sI1
F36.52662920951843
sI2
F0.06683206558227539
sI3
F0.06771087646484375
sI4
F0.0675969123840332
sI5
F0.06856107711791992
sI6
F0.06788277626037598
ssI10
(dp332
I0
F67.54856204986572
sI1
F30.20241904258728
sI2
F0.0680999755859375
sI3
F0.0688011646270752
sI4
F0.06735897064208984
sI5
F0.06685304641723633
sI6
F0.0690310001373291
ssI11
(dp333
I0
F35.626235008239746
sI1
F18.832746982574463
sI2
F0.06723380088806152
sI3
F0.06808805465698242
sI4
F0.06807184219360352
sI5
F0.06742691993713379
sI6
F0.06802701950073242
ssI12
(dp334
I0
F35.32578802108765
sI1
F12.223865032196045
sI2
F0.06762099266052246
sI3
F0.06727886199951172
sI4
F0.06820201873779297
sI5
F0.06886601448059082
sI6
F0.06682896614074707
ssI13
(dp335
I0
F23.09635591506958
sI1
F5.8100340366363525
sI2
F0.10883593559265137
sI3
F0.06856393814086914
sI4
F0.06784820556640625
sI5
F0.0677480697631836
sI6
F0.06701993942260742
ssI14
(dp336
I0
F11.220446109771729
sI1
F3.6545729637145996
sI2
F0.0670020580291748
sI3
F0.06729793548583984
sI4
F0.06809306144714355
sI5
F0.06767988204956055
sI6
F0.06708097457885742
ssI15
(dp337
I0
F6.257472038269043
sI1
F2.0531551837921143
sI2
F0.0679171085357666
sI3
F0.06754708290100098
sI4
F0.06745219230651855
sI5
F0.06760501861572266
sI6
F0.06700301170349121
ssI16
(dp338
I0
F0.06814312934875488
sI1
F0.06747698783874512
sI2
F0.06671500205993652
sI3
F0.06747198104858398
sI4
F0.06754398345947266
sI5
F0.06727099418640137
sI6
F0.06686902046203613
ssI17
(dp339
I0
F0.0673668384552002
sI1
F0.06741905212402344
sI2
F0.06718897819519043
sI3
F0.06708502769470215
sI4
F0.06784582138061523
sI5
F0.06878399848937988
sI6
F0.0667269229888916
sssg85
(dp340
I0
(dp341
I0
F0.042829036712646484
ssI1
(dp342
I0
F0.05173206329345703
sI1
F0.06938600540161133
sI2
F0.052147865295410156
sI3
F0.05121612548828125
sI4
F0.05075788497924805
sI5
F0.050575971603393555
sI6
F0.052332162857055664
ssI2
(dp343
I0
F0.0674140453338623
sI1
F0.06715679168701172
sI2
F0.05101895332336426
sI3
F0.05156397819519043
sI4
F0.05475902557373047
sI5
F0.05156898498535156
sI6
F0.05159902572631836
ssI3
(dp344
I0
F0.6000528335571289
sI1
F0.49997901916503906
sI2
F0.05097794532775879
sI3
F0.07185482978820801
sI4
F0.054010868072509766
sI5
F0.05191612243652344
sI6
F0.05097603797912598
ssI4
(dp345
I0
F0.9886229038238525
sI1
F0.6503400802612305
sI2
F0.0671689510345459
sI3
F0.05084109306335449
sI4
F0.051175832748413086
sI5
F0.052123069763183594
sI6
F0.051937103271484375
ssI5
(dp346
I0
F1.0510270595550537
sI1
F0.7004148960113525
sI2
F0.07123899459838867
sI3
F0.05056595802307129
sI4
F0.051010847091674805
sI5
F0.052018165588378906
sI6
F0.05109715461730957
ssI6
(dp347
I0
F1.1009650230407715
sI1
F0.8510332107543945
sI2
F0.050987958908081055
sI3
F0.07175493240356445
sI4
F0.05135393142700195
sI5
F0.05084991455078125
sI6
F0.05258989334106445
ssI7
(dp348
I0
F0.902130126953125
sI1
F0.8007490634918213
sI2
F0.06728506088256836
sI3
F0.06887412071228027
sI4
F0.06808710098266602
sI5
F0.06760096549987793
sI6
F0.06741809844970703
ssI8
(dp349
I0
F1.2512590885162354
sI1
F0.9506309032440186
sI2
F0.06823110580444336
sI3
F0.06722211837768555
sI4
F0.06844496726989746
sI5
F0.06737804412841797
sI6
F0.06758713722229004
ssI9
(dp350
I0
F0.9009361267089844
sI1
F0.8506381511688232
sI2
F0.06695199012756348
sI3
F0.06834602355957031
sI4
F0.06780409812927246
sI5
F0.06739687919616699
sI6
F0.06809687614440918
ssI10
(dp351
I0
F0.850761890411377
sI1
F0.800987958908081
sI2
F0.06692290306091309
sI3
F0.06713485717773438
sI4
F0.06790590286254883
sI5
F0.06745696067810059
sI6
F0.06750202178955078
ssI11
(dp352
I0
F0.9016249179840088
sI1
F0.8012888431549072
sI2
F0.06810688972473145
sI3
F0.0693979263305664
sI4
F0.07068395614624023
sI5
F0.06753396987915039
sI6
F0.06835603713989258
ssI12
(dp353
I0
F1.0025830268859863
sI1
F0.7497878074645996
sI2
F0.06708908081054688
sI3
F0.09983086585998535
sI4
F0.06802821159362793
sI5
F0.06854701042175293
sI6
F0.06817984580993652
ssI13
(dp354
I0
F0.8006751537322998
sI1
F0.7003998756408691
sI2
F0.06768202781677246
sI3
F0.068328857421875
sI4
F0.06755304336547852
sI5
F0.06738901138305664
sI6
F0.06738996505737305
ssI14
(dp355
I0
F0.7506940364837646
sI1
F0.650723934173584
sI2
F0.06698894500732422
sI3
F0.06685709953308105
sI4
F0.06913399696350098
sI5
F0.06814098358154297
sI6
F0.06714701652526855
ssI15
(dp356
I0
F0.5510568618774414
sI1
F0.4997529983520508
sI2
F0.06770205497741699
sI3
F0.0669088363647461
sI4
F0.06691908836364746
sI5
F0.06727790832519531
sI6
F0.06702303886413574
ssI16
(dp357
I0
F0.06720399856567383
sI1
F0.06682109832763672
sI2
F0.06752490997314453
sI3
F0.0678560733795166
sI4
F0.06755614280700684
sI5
F0.06728410720825195
sI6
F0.06727004051208496
ssI17
(dp358
I0
F0.06694698333740234
sI1
F0.0671849250793457
sI2
F0.06732892990112305
sI3
F0.06720876693725586
sI4
F0.06655311584472656
sI5
F0.06673884391784668
sI6
F0.06740808486938477
ssss(dp359
g23
F0.9277338660644489
sg91
(F0.48721169375912415
F0.9854531791889474
tp360
sg92
((F0.709084544533696
F0.9679119613102664
tp361
S'Timeout'
p362
tp363
sg153
F0.9279944410666203
sg163
cdecimal
Decimal
p364
(S'0.9412548969589438933428878018'
p365
tp366
Rp367
sg164
((F0.7090845445336961
F0.9679119613102665
tp368
g362
tp369
stp370
.