((dp0
S'k_crashes'
p1
I0
sS'load_priority'
p2
I00
sS'e'
p3
I12
sS'p_crashes'
p4
F0.015625
sS'k_omissions'
p5
I0
sS'epsilon'
p6
F0.01
sS'showProgress'
p7
I00
sS'p_delays'
p8
I0
sS'm'
p9
I5
sS'l'
p10
I5
sS'n'
p11
I5
sS'p_omissions'
p12
F0.015625
sS'countFaults'
p13
I00
sS'save_priority'
p14
I01
sS'probabalistic'
p15
I01
sS't'
p16
I5
sS'k_delays'
p17
I0
sS'precision'
p18
I10
sS'optimize'
p19
I01
sS'confidence'
p20
F0.999
s(dp21
S'timing_time'
p22
F2.86102294921875e-06
sS'2mt'
p23
F18.01764988899231
sS'0o_inner'
p24
(dp25
g22
F2.002716064453125e-05
sS'numSols_sharpSAT'
p26
(dp27
I0
(dp28
sI1
(dp29
sI2
(dp30
sI3
(dp31
sI4
(dp32
ssS'saboteurProbability'
p33
(dp34
I0
F0.02690887451171875
sI1
F2.6991119384765625
sI2
F52.38440704345703
sI3
F525.1494288444519
sI4
F2400.2478528022766
ssS'immediatefailureConstraints'
p35
(dp36
I0
(dp37
sI1
(dp38
sI2
(dp39
sI3
(dp40
sI4
(dp41
ssS'generate program'
p42
F0.30747389793395996
sS'cnf to dimacs'
p43
(dp44
I0
(dp45
sI1
(dp46
sI2
(dp47
sI3
(dp48
sI4
(dp49
ssS'k_maxSimulationConstraints_BOOL'
p50
(dp51
I0
F0.027189016342163086
sI1
F0.027017831802368164
sI2
F0.027966022491455078
sI3
F0.027083158493041992
sI4
F0.0270540714263916
ssS'sharpSAT_time'
p52
(dp53
I0
(dp54
sI1
(dp55
sI2
(dp56
sI3
(dp57
sI4
(dp58
ssS'numSols_approxMC'
p59
(dp60
I0
(dp61
sI1
(dp62
sI2
(dp63
sI3
(dp64
sI4
(dp65
ssS'z3 to cnf'
p66
(dp67
I0
(dp68
sI1
(dp69
sI2
(dp70
sI3
(dp71
sI4
(dp72
ssS'mis_time'
p73
(dp74
I0
(dp75
sI1
(dp76
sI2
(dp77
sI3
(dp78
sI4
(dp79
ssS'numSols_approxMC_mis'
p80
(dp81
I0
(dp82
sI1
(dp83
sI2
(dp84
sI3
(dp85
sI4
(dp86
ssS'approxMC_time'
p87
(dp88
I0
(dp89
sI1
(dp90
sI2
(dp91
sI3
(dp92
sI4
(dp93
ssS'approxMC_mis_time'
p94
(dp95
I0
(dp96
sI1
(dp97
sI2
(dp98
sI3
(dp99
sI4
(dp100
sssS'0b'
p101
F166.41735887527466
sS'0a'
p102
F2598.823179960251
sS'0a_inner'
p103
(dp104
g22
F2.09808349609375e-05
sg26
(dp105
I0
(dp106
sI1
(dp107
sI2
(dp108
sI3
(dp109
sI4
(dp110
ssg33
(dp111
I0
F0.02276301383972168
sI1
F0.1799321174621582
sI2
F4.286617040634155
sI3
F193.65385484695435
sI4
F2400.1494958400726
ssg35
(dp112
I0
(dp113
sI1
(dp114
sI2
(dp115
sI3
(dp116
sI4
(dp117
ssg42
F0.3020780086517334
sg43
(dp118
I0
(dp119
sI1
(dp120
sI2
(dp121
sI3
(dp122
sI4
(dp123
ssg50
(dp124
I0
F0.02651691436767578
sI1
F0.026740074157714844
sI2
F0.026641845703125
sI3
F0.02667093276977539
sI4
F0.027711153030395508
ssg52
(dp125
I0
(dp126
sI1
(dp127
sI2
(dp128
sI3
(dp129
sI4
(dp130
ssg59
(dp131
I0
(dp132
sI1
(dp133
sI2
(dp134
sI3
(dp135
sI4
(dp136
ssg66
(dp137
I0
(dp138
sI1
(dp139
sI2
(dp140
sI3
(dp141
sI4
(dp142
ssg73
(dp143
I0
(dp144
sI1
(dp145
sI2
(dp146
sI3
(dp147
sI4
(dp148
ssg80
(dp149
I0
(dp150
sI1
(dp151
sI2
(dp152
sI3
(dp153
sI4
(dp154
ssg87
(dp155
I0
(dp156
sI1
(dp157
sI2
(dp158
sI3
(dp159
sI4
(dp160
ssg94
(dp161
I0
(dp162
sI1
(dp163
sI2
(dp164
sI3
(dp165
sI4
(dp166
sssS'doomed_state_timing'
p167
(dp168
S'total'
p169
F2881.460354089737
sS'solving'
p170
F736.0211081504822
sS'excluding'
p171
F0.013153076171875
sS'constraints'
p172
F2053.7789578437805
ssS'2m'
p173
F65.59153509140015
sS'1m_inner'
p174
(dp175
S'sharpsat'
p176
F0.891
sg22
F2.1457672119140625e-06
sS'dimacs to file'
p177
F0.0049130916595458984
sS'cnf to dimacs'
p178
F2.3695569038391113
sS'generate program'
p179
F0.302886962890625
sS'assign weights'
p180
F0.06349301338195801
sS'z3 to cnf'
p181
F0.004349946975708008
sS'get umc'
p182
F0.17903804779052734
ssS'1m'
p183
F3.886228084564209
sS'0o'
p184
F2980.9670650959015
sS'0b_inner'
p185
(dp186
g22
F0.0004904270172119141
sg26
(dp187
I0
(dp188
I0
I0
ssI1
(dp189
I0
I3
sI1
I2
sI2
I1
sI3
I0
sI4
I0
ssI2
(dp190
I0
I34
sI1
I21
sI2
I11
sI3
I0
sI4
I0
ssI3
(dp191
I0
I162
sI1
I100
sI2
I55
sI3
I0
sI4
I0
ssI4
(dp192
I0
I437
sI1
I285
sI2
I165
sI3
I0
sI4
I0
ssI5
(dp193
I0
I760
sI1
I540
sI2
I330
sI3
I0
sI4
I0
ssI6
(dp194
I0
I915
sI1
I714
sI2
I462
sI3
I0
sI4
I0
ssI7
(dp195
I0
I791
sI1
I672
sI2
I462
sI3
I0
sI4
I0
ssI8
(dp196
I0
I495
sI1
I450
sI2
I330
sI3
I0
sI4
I0
ssI9
(dp197
I0
I220
sI1
I210
sI2
I165
sI3
I0
sI4
I0
ssI10
(dp198
I0
I66
sI1
I65
sI2
I55
sI3
I0
sI4
I0
ssI11
(dp199
I0
I12
sI1
I12
sI2
I11
sI3
I0
sI4
I0
ssI12
(dp200
I0
I1
sI1
I1
sI2
I1
sI3
I0
sI4
I0
sssg33
(dp201
sg35
(dp202
I0
(dp203
I0
F0.0022461414337158203
ssI1
(dp204
I0
F0.0022029876708984375
sI1
F0.0025300979614257812
sI2
F0.0024330615997314453
sI3
F0.0025091171264648438
sI4
F0.0025250911712646484
ssI2
(dp205
I0
F0.0021600723266601562
sI1
F0.002538919448852539
sI2
F0.002585887908935547
sI3
F0.002454996109008789
sI4
F0.0025758743286132812
ssI3
(dp206
I0
F0.0021820068359375
sI1
F0.002521038055419922
sI2
F0.0051991939544677734
sI3
F0.0024788379669189453
sI4
F0.0024330615997314453
ssI4
(dp207
I0
F0.0021200180053710938
sI1
F0.003503084182739258
sI2
F0.002504110336303711
sI3
F0.0027968883514404297
sI4
F0.0027799606323242188
ssI5
(dp208
I0
F0.002177000045776367
sI1
F0.002722024917602539
sI2
F0.0024869441986083984
sI3
F0.0024840831756591797
sI4
F0.0025510787963867188
ssI6
(dp209
I0
F0.0021898746490478516
sI1
F0.0024940967559814453
sI2
F0.0024368762969970703
sI3
F0.002485990524291992
sI4
F0.002557992935180664
ssI7
(dp210
I0
F0.0021638870239257812
sI1
F0.002418994903564453
sI2
F0.002674102783203125
sI3
F0.0024411678314208984
sI4
F0.002474069595336914
ssI8
(dp211
I0
F0.0021109580993652344
sI1
F0.002416849136352539
sI2
F0.0024840831756591797
sI3
F0.0025031566619873047
sI4
F0.002413034439086914
ssI9
(dp212
I0
F0.0021491050720214844
sI1
F0.002421855926513672
sI2
F0.002485990524291992
sI3
F0.0025451183319091797
sI4
F0.002732992172241211
ssI10
(dp213
I0
F0.002115964889526367
sI1
F0.002532958984375
sI2
F0.002465963363647461
sI3
F0.002501964569091797
sI4
F0.002756834030151367
ssI11
(dp214
I0
F0.0021021366119384766
sI1
F0.0026009082794189453
sI2
F0.0024330615997314453
sI3
F0.0025129318237304688
sI4
F0.0025479793548583984
ssI12
(dp215
I0
F0.0021200180053710938
sI1
F0.002604961395263672
sI2
F0.0024309158325195312
sI3
F0.0024089813232421875
sI4
F0.002652883529663086
sssg42
F0.2993638515472412
sg43
(dp216
I0
(dp217
I0
F1.0255770683288574
ssI1
(dp218
I0
F1.2004079818725586
sI1
F1.2018530368804932
sI2
F1.2022349834442139
sI3
F1.1972908973693848
sI4
F1.1866610050201416
ssI2
(dp219
I0
F1.1777698993682861
sI1
F1.1916110515594482
sI2
F1.2037808895111084
sI3
F1.1914801597595215
sI4
F1.1937060356140137
ssI3
(dp220
I0
F1.2803759574890137
sI1
F1.3070251941680908
sI2
F1.2881770133972168
sI3
F1.2868869304656982
sI4
F1.290410041809082
ssI4
(dp221
I0
F1.2719919681549072
sI1
F1.2880780696868896
sI2
F1.2868340015411377
sI3
F1.285933017730713
sI4
F1.2838430404663086
ssI5
(dp222
I0
F1.2978489398956299
sI1
F1.2843670845031738
sI2
F1.2882401943206787
sI3
F1.2871298789978027
sI4
F1.2862470149993896
ssI6
(dp223
I0
F1.271697998046875
sI1
F1.2876429557800293
sI2
F1.287722110748291
sI3
F1.2844600677490234
sI4
F1.2901790142059326
ssI7
(dp224
I0
F1.388395071029663
sI1
F1.4048948287963867
sI2
F1.402618169784546
sI3
F1.4059109687805176
sI4
F1.4036328792572021
ssI8
(dp225
I0
F1.3891630172729492
sI1
F1.4036610126495361
sI2
F1.403412103652954
sI3
F1.4019749164581299
sI4
F1.396420955657959
ssI9
(dp226
I0
F1.3824219703674316
sI1
F1.396712064743042
sI2
F1.395169973373413
sI3
F1.3982830047607422
sI4
F1.3981947898864746
ssI10
(dp227
I0
F1.3841779232025146
sI1
F1.412071943283081
sI2
F1.4918529987335205
sI3
F1.4010009765625
sI4
F1.3984639644622803
ssI11
(dp228
I0
F1.3810780048370361
sI1
F1.3967130184173584
sI2
F1.3982269763946533
sI3
F1.4184761047363281
sI4
F1.401339054107666
ssI12
(dp229
I0
F1.3822250366210938
sI1
F1.3956727981567383
sI2
F1.3964149951934814
sI3
F1.4105069637298584
sI4
F1.4004230499267578
sssg50
(dp230
I0
F0.016571044921875
sI1
F0.023612022399902344
sI2
F0.02370285987854004
sI3
F0.029330015182495117
sI4
F0.028313875198364258
sI5
F0.028277873992919922
sI6
F0.0288240909576416
sI7
F0.033017873764038086
sI8
F0.032586097717285156
sI9
F0.0334620475769043
sI10
F0.03267192840576172
sI11
F0.03229689598083496
sI12
F0.032559871673583984
ssg52
(dp231
I0
(dp232
I0
F0.001166
ssI1
(dp233
I0
F0.020973
sI1
F0.004591
sI2
F0.002636
sI3
F0.001536
sI4
F0.001406
ssI2
(dp234
I0
F0.011182
sI1
F0.003922
sI2
F0.003919
sI3
F0.001435
sI4
F0.001478
ssI3
(dp235
I0
F0.026547
sI1
F0.005209
sI2
F0.003642
sI3
F0.001615
sI4
F0.001579
ssI4
(dp236
I0
F0.026545
sI1
F0.005896
sI2
F0.004436
sI3
F0.001613
sI4
F0.001647
ssI5
(dp237
I0
F0.033226
sI1
F0.006504
sI2
F0.004283
sI3
F0.001703
sI4
F0.001648
ssI6
(dp238
I0
F0.038063
sI1
F0.006177
sI2
F0.004706
sI3
F0.001624
sI4
F0.001628
ssI7
(dp239
I0
F0.043307
sI1
F0.006986
sI2
F0.004984
sI3
F0.001793
sI4
F0.0018
ssI8
(dp240
I0
F0.026526
sI1
F0.007334
sI2
F0.005649
sI3
F0.001734
sI4
F0.001641
ssI9
(dp241
I0
F0.020315
sI1
F0.006517
sI2
F0.004732
sI3
F0.001719
sI4
F0.001652
ssI10
(dp242
I0
F0.01336
sI1
F0.005692
sI2
F0.00463
sI3
F0.001732
sI4
F0.001643
ssI11
(dp243
I0
F0.011538
sI1
F0.00455
sI2
F0.00429
sI3
F0.00177
sI4
F0.001796
ssI12
(dp244
I0
F0.009619
sI1
F0.004262
sI2
F0.00347
sI3
F0.001767
sI4
F0.001704
sssg59
(dp245
I0
(dp246
I0
I0
ssI1
(dp247
I0
I3
sI1
I2
sI2
I1
sI3
I0
sI4
I0
ssI2
(dp248
I0
I34
sI1
I21
sI2
I11
sI3
I0
sI4
I0
ssI3
(dp249
I0
I168
sI1
I98
sI2
I58
sI3
I0
sI4
I0
ssI4
(dp250
I0
I432
sI1
I288
sI2
I168
sI3
I0
sI4
I0
ssI5
(dp251
I0
I768
sI1
I560
sI2
I328
sI3
I0
sI4
I0
ssI6
(dp252
I0
I816
sI1
I736
sI2
I448
sI3
I0
sI4
I0
ssI7
(dp253
I0
I800
sI1
I672
sI2
I448
sI3
I0
sI4
I0
ssI8
(dp254
I0
I512
sI1
I432
sI2
I304
sI3
I0
sI4
I0
ssI9
(dp255
I0
I208
sI1
I196
sI2
I168
sI3
I0
sI4
I0
ssI10
(dp256
I0
I72
sI1
I66
sI2
I54
sI3
I0
sI4
I0
ssI11
(dp257
I0
I12
sI1
I12
sI2
I11
sI3
I0
sI4
I0
ssI12
(dp258
I0
I1
sI1
I1
sI2
I1
sI3
I0
sI4
I0
sssg66
(dp259
I0
(dp260
I0
F0.02749490737915039
ssI1
(dp261
I0
F0.027585983276367188
sI1
F0.02722907066345215
sI2
F0.027657032012939453
sI3
F0.02751898765563965
sI4
F0.02794814109802246
ssI2
(dp262
I0
F0.02724003791809082
sI1
F0.02748703956604004
sI2
F0.028139114379882812
sI3
F0.02730393409729004
sI4
F0.02756190299987793
ssI3
(dp263
I0
F0.02734088897705078
sI1
F0.027298927307128906
sI2
F0.028789997100830078
sI3
F0.02730703353881836
sI4
F0.0270841121673584
ssI4
(dp264
I0
F0.026954174041748047
sI1
F0.0298159122467041
sI2
F0.027455806732177734
sI3
F0.027601003646850586
sI4
F0.02815389633178711
ssI5
(dp265
I0
F0.027004003524780273
sI1
F0.02759099006652832
sI2
F0.027100801467895508
sI3
F0.02759099006652832
sI4
F0.027351856231689453
ssI6
(dp266
I0
F0.027007102966308594
sI1
F0.027287960052490234
sI2
F0.02744603157043457
sI3
F0.027152061462402344
sI4
F0.02738785743713379
ssI7
(dp267
I0
F0.02701592445373535
sI1
F0.027737140655517578
sI2
F0.027356863021850586
sI3
F0.027710914611816406
sI4
F0.02737903594970703
ssI8
(dp268
I0
F0.027431011199951172
sI1
F0.027788162231445312
sI2
F0.02771592140197754
sI3
F0.02748894691467285
sI4
F0.027373075485229492
ssI9
(dp269
I0
F0.027286052703857422
sI1
F0.027204036712646484
sI2
F0.02746891975402832
sI3
F0.028300046920776367
sI4
F0.027439117431640625
ssI10
(dp270
I0
F0.0273439884185791
sI1
F0.0277712345123291
sI2
F0.027463912963867188
sI3
F0.027252912521362305
sI4
F0.027796030044555664
ssI11
(dp271
I0
F0.027266979217529297
sI1
F0.02709197998046875
sI2
F0.027450084686279297
sI3
F0.02733588218688965
sI4
F0.027873992919921875
ssI12
(dp272
I0
F0.027272939682006836
sI1
F0.028371095657348633
sI2
F0.027662992477416992
sI3
F0.02721095085144043
sI4
F0.02912306785583496
sssg73
(dp273
I0
(dp274
I0
F0.06684994697570801
ssI1
(dp275
I0
F0.24929404258728027
sI1
F0.09946608543395996
sI2
F0.19309186935424805
sI3
F0.06731009483337402
sI4
F0.06641483306884766
ssI2
(dp276
I0
F1.1514298915863037
sI1
F0.14964985847473145
sI2
F0.14892888069152832
sI3
F0.06714320182800293
sI4
F0.06881308555603027
ssI3
(dp277
I0
F2.2531189918518066
sI1
F0.4496309757232666
sI2
F0.2498340606689453
sI3
F0.06652402877807617
sI4
F0.06651902198791504
ssI4
(dp278
I0
F2.9116649627685547
sI1
F0.4504659175872803
sI2
F0.3998239040374756
sI3
F0.06638693809509277
sI4
F0.06692099571228027
ssI5
(dp279
I0
F2.2530078887939453
sI1
F0.6501390933990479
sI2
F0.6002449989318848
sI3
F0.0670170783996582
sI4
F0.06671404838562012
ssI6
(dp280
I0
F2.5526070594787598
sI1
F0.49924588203430176
sI2
F0.599977970123291
sI3
F0.06709885597229004
sI4
F0.06673502922058105
ssI7
(dp281
I0
F2.8055689334869385
sI1
F0.9506680965423584
sI2
F0.49943113327026367
sI3
F0.06677985191345215
sI4
F0.06711506843566895
ssI8
(dp282
I0
F2.702855110168457
sI1
F0.8510501384735107
sI2
F0.6508989334106445
sI3
F0.06695795059204102
sI4
F0.06713104248046875
ssI9
(dp283
I0
F2.7544660568237305
sI1
F0.6998920440673828
sI2
F0.4998290538787842
sI3
F0.06671404838562012
sI4
F0.06668901443481445
ssI10
(dp284
I0
F1.3018841743469238
sI1
F0.2987630367279053
sI2
F0.4515681266784668
sI3
F0.06756210327148438
sI4
F0.06732892990112305
ssI11
(dp285
I0
F0.5002951622009277
sI1
F0.19892501831054688
sI2
F0.19968891143798828
sI3
F0.06731510162353516
sI4
F0.06665492057800293
ssI12
(dp286
I0
F0.09882807731628418
sI1
F0.09862208366394043
sI2
F0.0987250804901123
sI3
F0.06786394119262695
sI4
F0.06683611869812012
sssg80
(dp287
I0
(dp288
I0
I0
ssI1
(dp289
I0
I3
sI1
I2
sI2
I1
sI3
I0
sI4
I0
ssI2
(dp290
I0
I34
sI1
I21
sI2
I11
sI3
I0
sI4
I0
ssI3
(dp291
I0
I164
sI1
I102
sI2
I60
sI3
I0
sI4
I0
ssI4
(dp292
I0
I416
sI1
I288
sI2
I164
sI3
I0
sI4
I0
ssI5
(dp293
I0
I800
sI1
I560
sI2
I368
sI3
I0
sI4
I0
ssI6
(dp294
I0
I896
sI1
I704
sI2
I496
sI3
I0
sI4
I0
ssI7
(dp295
I0
I784
sI1
I736
sI2
I464
sI3
I0
sI4
I0
ssI8
(dp296
I0
I528
sI1
I480
sI2
I336
sI3
I0
sI4
I0
ssI9
(dp297
I0
I224
sI1
I208
sI2
I164
sI3
I0
sI4
I0
ssI10
(dp298
I0
I70
sI1
I70
sI2
I56
sI3
I0
sI4
I0
ssI11
(dp299
I0
I12
sI1
I12
sI2
I11
sI3
I0
sI4
I0
ssI12
(dp300
I0
I1
sI1
I1
sI2
I1
sI3
I0
sI4
I0
sssg87
(dp301
I0
(dp302
I0
F0.043128013610839844
ssI1
(dp303
I0
F0.05048990249633789
sI1
F0.05073904991149902
sI2
F0.05065512657165527
sI3
F0.05160999298095703
sI4
F0.05126214027404785
ssI2
(dp304
I0
F0.050286054611206055
sI1
F0.0513300895690918
sI2
F0.050859928131103516
sI3
F0.05063509941101074
sI4
F0.06287884712219238
ssI3
(dp305
I0
F1.4506440162658691
sI1
F0.5501930713653564
sI2
F0.3986849784851074
sI3
F0.05055499076843262
sI4
F0.050692081451416016
ssI4
(dp306
I0
F2.3026020526885986
sI1
F0.8995890617370605
sI2
F0.64935302734375
sI3
F0.051154136657714844
sI4
F0.05157184600830078
ssI5
(dp307
I0
F2.2532341480255127
sI1
F1.0840580463409424
sI2
F0.9495840072631836
sI3
F0.050289154052734375
sI4
F0.051774024963378906
ssI6
(dp308
I0
F3.052708148956299
sI1
F1.2000210285186768
sI2
F1.000967025756836
sI3
F0.05059981346130371
sI4
F0.05167102813720703
ssI7
(dp309
I0
F3.5065841674804688
sI1
F1.2007191181182861
sI2
F0.900501012802124
sI3
F0.05074501037597656
sI4
F0.051934003829956055
ssI8
(dp310
I0
F3.7545177936553955
sI1
F1.6516480445861816
sI2
F0.9003472328186035
sI3
F0.050750017166137695
sI4
F0.051934003829956055
ssI9
(dp311
I0
F2.953632116317749
sI1
F1.10020112991333
sI2
F0.6999778747558594
sI3
F0.050894975662231445
sI4
F0.05060005187988281
ssI10
(dp312
I0
F1.2892448902130127
sI1
F0.550894021987915
sI2
F0.44884490966796875
sI3
F0.05131793022155762
sI4
F0.05164217948913574
ssI11
(dp313
I0
F0.051164865493774414
sI1
F0.05044913291931152
sI2
F0.05111384391784668
sI3
F0.051167964935302734
sI4
F0.05108189582824707
ssI12
(dp314
I0
F0.0533299446105957
sI1
F0.05041909217834473
sI2
F0.050325870513916016
sI3
F0.05267214775085449
sI4
F0.05125999450683594
sssg94
(dp315
I0
(dp316
I0
F0.04228806495666504
ssI1
(dp317
I0
F0.05088996887207031
sI1
F0.05191493034362793
sI2
F0.05093216896057129
sI3
F0.051154136657714844
sI4
F0.050817012786865234
ssI2
(dp318
I0
F0.05008697509765625
sI1
F0.051239967346191406
sI2
F0.051423072814941406
sI3
F0.07217121124267578
sI4
F0.052999019622802734
ssI3
(dp319
I0
F0.29949092864990234
sI1
F0.24871397018432617
sI2
F0.19945788383483887
sI3
F0.05088186264038086
sI4
F0.05101490020751953
ssI4
(dp320
I0
F0.3990590572357178
sI1
F0.2487649917602539
sI2
F0.24936294555664062
sI3
F0.05099797248840332
sI4
F0.0507969856262207
ssI5
(dp321
I0
F0.39998888969421387
sI1
F0.2990999221801758
sI2
F0.2996981143951416
sI3
F0.050559043884277344
sI4
F0.050843000411987305
ssI6
(dp322
I0
F0.3998439311981201
sI1
F0.3491978645324707
sI2
F0.2997899055480957
sI3
F0.05088400840759277
sI4
F0.0518190860748291
ssI7
(dp323
I0
F0.4958178997039795
sI1
F0.3495631217956543
sI2
F0.3002049922943115
sI3
F0.05139803886413574
sI4
F0.05156302452087402
ssI8
(dp324
I0
F0.3998692035675049
sI1
F0.34938597679138184
sI2
F0.299360990524292
sI3
F0.05196404457092285
sI4
F0.04982709884643555
ssI9
(dp325
I0
F0.35130906105041504
sI1
F0.29981303215026855
sI2
F0.2989180088043213
sI3
F0.051568031311035156
sI4
F0.05168795585632324
ssI10
(dp326
I0
F0.2496170997619629
sI1
F0.24785399436950684
sI2
F0.24904179573059082
sI3
F0.05111098289489746
sI4
F0.0519559383392334
ssI11
(dp327
I0
F0.050083160400390625
sI1
F0.052449941635131836
sI2
F0.0505828857421875
sI3
F0.05174684524536133
sI4
F0.05208706855773926
ssI12
(dp328
I0
F0.052294015884399414
sI1
F0.05104494094848633
sI2
F0.05010199546813965
sI3
F0.051698923110961914
sI4
F0.05154585838317871
ssss(dp329
g23
F0.906772054778656
sg101
(F0.76046764666652
F0.9531911992484459
tp330
sg102
((F0.9019774761188273
F0.9118979582922825
tp331
S'Timeout'
p332
tp333
sg173
F0.9048032658733606
sg183
cdecimal
Decimal
p334
(S'0.9118091774298786501242319828'
p335
tp336
Rp337
sg184
((F0.9019774761188264
F0.9118979582922815
tp338
g332
tp339
stp340
.